(dp1
I1
(dp2
I0
ccopy_reg
_reconstructor
p3
(cgeosolver.text.dependency_parser
SyntaxTree
p4
c__builtin__
object
p5
NtRp6
(dp7
S'directed'
p8
g3
(cnetworkx.classes.digraph
DiGraph
p9
g5
NtRp10
(dp11
S'node'
p12
(dp13
I0
(dp14
S'word'
p15
S'In'
p16
sS'label'
p17
S'In-0'
p18
ssI1
(dp19
g15
S'the'
p20
sg17
S'the-1'
p21
ssI2
(dp22
g15
S'diagram'
p23
sg17
S'diagram-2'
p24
ssI3
(dp25
g15
S'at'
p26
sg17
S'at-3'
p27
ssI4
(dp28
g15
S'the'
p29
sg17
S'the-4'
p30
ssI5
(dp31
g15
S'right'
p32
sg17
S'right-5'
p33
ssI7
(dp34
g15
S'circle'
p35
sg17
S'circle-7'
p36
ssI8
(dp37
g15
S'O'
sg17
S'O-8'
p38
ssI9
(dp39
g15
S'has'
p40
sg17
S'has-9'
p41
ssI10
(dp42
g15
S'a'
sg17
S'a-10'
p43
ssI11
(dp44
g15
S'radius'
p45
sg17
S'radius-11'
p46
ssI12
(dp47
g15
S'of'
p48
sg17
S'of-12'
p49
ssI13
(dp50
g15
S'5'
sg17
S'5-13'
p51
ssI15
(dp52
g15
S'and'
p53
sg17
S'and-15'
p54
ssI16
(dp55
g15
S'CE'
p56
sg17
S'CE-16'
p57
ssI17
(dp58
g15
S'equals'
p59
sg17
S'equals-17'
p60
ssI18
(dp61
g15
S'2'
sg17
S'2-18'
p62
sssS'graph'
p63
(dp64
sS'succ'
p65
(dp66
I0
(dp67
I2
(dp68
g17
Vpobj
p69
sssI1
(dp70
sI2
(dp71
I1
(dp72
g17
Vdet
p73
ssI3
(dp74
g17
Vprep
p75
sssI3
(dp76
I5
(dp77
g17
Vpobj
p78
sssI4
(dp79
sI5
(dp80
I4
(dp81
g17
Vdet
p82
sssI7
(dp83
sI8
(dp84
I7
(dp85
g17
Vnn
p86
sssI9
(dp87
I0
(dp88
g17
Vprep
p89
ssI8
(dp90
g17
Vnsubj
p91
ssI11
(dp92
g17
Vdobj
p93
ssI17
(dp94
g17
Vconj
p95
ssI15
(dp96
g17
Vcc
p97
sssI10
(dp98
sI11
(dp99
I10
(dp100
g17
Vdet
p101
ssI12
(dp102
g17
Vprep
p103
sssI12
(dp104
I13
(dp105
g17
Vpobj
p106
sssI13
(dp107
sI15
(dp108
sI16
(dp109
sI17
(dp110
I16
(dp111
g17
Vnsubj
p112
ssI18
(dp113
g17
Vdobj
p114
sssI18
(dp115
ssS'edge'
p116
g66
sS'pred'
p117
(dp118
I0
(dp119
I9
g88
ssI1
(dp120
I2
g72
ssI2
(dp121
I0
g68
ssI3
(dp122
I2
g74
ssI4
(dp123
I5
g81
ssI5
(dp124
I3
g77
ssI7
(dp125
I8
g85
ssI8
(dp126
I9
g90
ssI9
(dp127
sI10
(dp128
I11
g100
ssI11
(dp129
I9
g92
ssI12
(dp130
I11
g102
ssI13
(dp131
I12
g105
ssI15
(dp132
I9
g96
ssI16
(dp133
I17
g111
ssI17
(dp134
I9
g94
ssI18
(dp135
I17
g113
sssS'adj'
p136
g66
sbsS'score'
p137
F-137.52628952264786
sS'undirected'
p138
g3
(cnetworkx.classes.graph
Graph
p139
g5
NtRp140
(dp141
g12
(dp142
I0
(dp143
g15
g16
sg17
g18
ssI1
(dp144
g15
g20
sg17
g21
ssI2
(dp145
g15
g23
sg17
g24
ssI3
(dp146
g15
g26
sg17
g27
ssI4
(dp147
g15
g29
sg17
g30
ssI5
(dp148
g15
g32
sg17
g33
ssI7
(dp149
g15
g35
sg17
g36
ssI8
(dp150
g15
S'O'
sg17
g38
ssI9
(dp151
g15
g40
sg17
g41
ssI10
(dp152
g15
S'a'
sg17
g43
ssI11
(dp153
g15
g45
sg17
g46
ssI12
(dp154
g15
g48
sg17
g49
ssI13
(dp155
g15
S'5'
sg17
g51
ssI15
(dp156
g15
g53
sg17
g54
ssI16
(dp157
g15
g56
sg17
g57
ssI17
(dp158
g15
g59
sg17
g60
ssI18
(dp159
g15
S'2'
sg17
g62
sssg63
(dp160
sg116
(dp161
I0
(dp162
I9
(dp163
g17
g89
ssI2
(dp164
g17
g69
sssI1
(dp165
I2
(dp166
g17
g73
sssI2
(dp167
I0
g164
sI1
g166
sI3
(dp168
g17
g75
sssI3
(dp169
I2
g168
sI5
(dp170
g17
g78
sssI4
(dp171
I5
(dp172
g17
g82
sssI5
(dp173
I3
g170
sI4
g172
ssI7
(dp174
I8
(dp175
g17
g86
sssI8
(dp176
I9
(dp177
g17
g91
ssI7
g175
ssI9
(dp178
I0
g163
sI8
g177
sI11
(dp179
g17
g93
ssI15
(dp180
g17
g97
ssI17
(dp181
g17
g95
sssI10
(dp182
I11
(dp183
g17
g101
sssI11
(dp184
I9
g179
sI10
g183
sI12
(dp185
g17
g103
sssI12
(dp186
I11
g185
sI13
(dp187
g17
g106
sssI13
(dp188
I12
g187
ssI15
(dp189
I9
g180
ssI16
(dp190
I17
(dp191
g17
g112
sssI17
(dp192
I16
g191
sI9
g181
sI18
(dp193
g17
g114
sssI18
(dp194
I17
g193
sssg136
g161
sbsS'rank'
p195
I0
sS'words'
p196
(dp197
I0
g16
sI1
g20
sI2
g23
sI3
g26
sI4
g29
sI5
g32
sI6
S','
sI7
g35
sI8
S'O'
sI9
g40
sI10
S'a'
sI11
g45
sI12
g48
sI13
S'5'
sI14
S','
sI15
g53
sI16
g56
sI17
g59
sI18
S'2'
sI19
S'.'
ssbsI1
g3
(g4
g5
NtRp198
(dp199
g8
g3
(g9
g5
NtRp200
(dp201
g12
(dp202
I0
(dp203
g15
S'Diameter'
p204
sg17
S'Diameter-0'
p205
ssI1
(dp206
g15
S'AC'
p207
sg17
S'AC-1'
p208
ssI2
(dp209
g15
S'is'
p210
sg17
S'is-2'
p211
ssI3
(dp212
g15
S'perpendicular'
p213
sg17
S'perpendicular-3'
p214
ssI4
(dp215
g15
S'to'
p216
sg17
S'to-4'
p217
ssI5
(dp218
g15
S'chord'
p219
sg17
S'chord-5'
p220
ssI6
(dp221
g15
S'BD'
p222
sg17
S'BD-6'
p223
ssI7
(dp224
g15
S'at'
p225
sg17
S'at-7'
p226
ssI8
(dp227
g15
S'E'
sg17
S'E-8'
p228
sssg63
(dp229
sg65
(dp230
I0
(dp231
sI1
(dp232
I0
(dp233
g17
Vnn
p234
sssI2
(dp235
sI3
(dp236
I1
(dp237
g17
Vnsubj
p238
ssI2
(dp239
g17
Vcop
p240
ssI4
(dp241
g17
Vprep
p242
sssI4
(dp243
I6
(dp244
g17
Vpobj
p245
sssI5
(dp246
sI6
(dp247
I5
(dp248
g17
Vnn
p249
ssI7
(dp250
g17
Vprep
p251
sssI7
(dp252
I8
(dp253
g17
Vpobj
p254
sssI8
(dp255
ssg116
g230
sg117
(dp256
I0
(dp257
I1
g233
ssI1
(dp258
I3
g237
ssI2
(dp259
I3
g239
ssI3
(dp260
sI4
(dp261
I3
g241
ssI5
(dp262
I6
g248
ssI6
(dp263
I4
g244
ssI7
(dp264
I6
g250
ssI8
(dp265
I7
g253
sssg136
g230
sbsg137
F-97.436720430850983
sg138
g3
(g139
g5
NtRp266
(dp267
g12
(dp268
I0
(dp269
g15
g204
sg17
g205
ssI1
(dp270
g15
g207
sg17
g208
ssI2
(dp271
g15
g210
sg17
g211
ssI3
(dp272
g15
g213
sg17
g214
ssI4
(dp273
g15
g216
sg17
g217
ssI5
(dp274
g15
g219
sg17
g220
ssI6
(dp275
g15
g222
sg17
g223
ssI7
(dp276
g15
g225
sg17
g226
ssI8
(dp277
g15
S'E'
sg17
g228
sssg63
(dp278
sg116
(dp279
I0
(dp280
I1
(dp281
g17
g234
sssI1
(dp282
I0
g281
sI3
(dp283
g17
g238
sssI2
(dp284
I3
(dp285
g17
g240
sssI3
(dp286
I1
g283
sI2
g285
sI4
(dp287
g17
g242
sssI4
(dp288
I3
g287
sI6
(dp289
g17
g245
sssI5
(dp290
I6
(dp291
g17
g249
sssI6
(dp292
I4
g289
sI5
g291
sI7
(dp293
g17
g251
sssI7
(dp294
I8
(dp295
g17
g254
ssI6
g293
ssI8
(dp296
I7
g295
sssg136
g279
sbsg195
I0
sg196
(dp297
I0
g204
sI1
g207
sI2
g210
sI3
g213
sI4
g216
sI5
g219
sI6
g222
sI7
g225
sI8
S'E'
sI9
S'.'
ssbsI2
g3
(g4
g5
NtRp298
(dp299
g8
g3
(g9
g5
NtRp300
(dp301
g12
(dp302
I0
(dp303
g15
S'What'
p304
sg17
S'What-0'
p305
ssI1
(dp306
g15
S'is'
p307
sg17
S'is-1'
p308
ssI2
(dp309
g15
S'the'
p310
sg17
S'the-2'
p311
ssI3
(dp312
g15
S'length'
p313
sg17
S'length-3'
p314
ssI4
(dp315
g15
S'of'
p316
sg17
S'of-4'
p317
ssI5
(dp318
g15
S'BD'
p319
sg17
S'BD-5'
p320
sssg63
(dp321
sg65
(dp322
I0
(dp323
I1
(dp324
g17
Vcop
p325
ssI3
(dp326
g17
Vnsubj
p327
sssI1
(dp328
sI2
(dp329
sI3
(dp330
I2
(dp331
g17
Vdet
p332
ssI4
(dp333
g17
Vprep
p334
sssI4
(dp335
I5
(dp336
g17
Vpobj
p337
sssI5
(dp338
ssg116
g322
sg117
(dp339
I0
(dp340
sI1
(dp341
I0
g324
ssI2
(dp342
I3
g331
ssI3
(dp343
I0
g326
ssI4
(dp344
I3
g333
ssI5
(dp345
I4
g336
sssg136
g322
sbsg137
F-34.264482975006104
sg138
g3
(g139
g5
NtRp346
(dp347
g12
(dp348
I0
(dp349
g15
g304
sg17
g305
ssI1
(dp350
g15
g307
sg17
g308
ssI2
(dp351
g15
g310
sg17
g311
ssI3
(dp352
g15
g313
sg17
g314
ssI4
(dp353
g15
g316
sg17
g317
ssI5
(dp354
g15
g319
sg17
g320
sssg63
(dp355
sg116
(dp356
I0
(dp357
I1
(dp358
g17
g325
ssI3
(dp359
g17
g327
sssI1
(dp360
I0
g358
ssI2
(dp361
I3
(dp362
g17
g332
sssI3
(dp363
I0
g359
sI2
g362
sI4
(dp364
g17
g334
sssI4
(dp365
I3
g364
sI5
(dp366
g17
g337
sssI5
(dp367
I4
g366
sssg136
g356
sbsg195
I0
sg196
(dp368
I0
g304
sI1
g307
sI2
g310
sI3
g313
sI4
g316
sI5
g319
sI6
S'?'
ssbssI2
(dp369
I0
g3
(g4
g5
NtRp370
(dp371
g8
g3
(g9
g5
NtRp372
(dp373
g12
(dp374
I0
(dp375
g15
S'In'
p376
sg17
S'In-0'
p377
ssI1
(dp378
g15
S'circle'
p379
sg17
S'circle-1'
p380
ssI2
(dp381
g15
S'O'
sg17
S'O-2'
p382
ssI4
(dp383
g15
S'diameter'
p384
sg17
S'diameter-4'
p385
ssI5
(dp386
g15
S'AB'
p387
sg17
S'AB-5'
p388
ssI6
(dp389
g15
S'is'
p390
sg17
S'is-6'
p391
ssI7
(dp392
g15
S'perpendicular'
p393
sg17
S'perpendicular-7'
p394
ssI8
(dp395
g15
S'to'
p396
sg17
S'to-8'
p397
ssI9
(dp398
g15
S'chord'
p399
sg17
S'chord-9'
p400
ssI10
(dp401
g15
S'CD'
p402
sg17
S'CD-10'
p403
ssI11
(dp404
g15
S'at'
p405
sg17
S'at-11'
p406
ssI12
(dp407
g15
S'E'
sg17
S'E-12'
p408
sssg63
(dp409
sg65
(dp410
I0
(dp411
I2
(dp412
g17
Vpobj
p413
sssI1
(dp414
sI2
(dp415
I1
(dp416
g17
Vnn
p417
sssI4
(dp418
sI5
(dp419
I4
(dp420
g17
Vnn
p421
sssI6
(dp422
sI7
(dp423
I0
(dp424
g17
Vprep
p425
ssI8
(dp426
g17
Vprep
p427
ssI5
(dp428
g17
Vnsubj
p429
ssI6
(dp430
g17
Vcop
p431
sssI8
(dp432
I10
(dp433
g17
Vpobj
p434
sssI9
(dp435
sI10
(dp436
I9
(dp437
g17
Vnn
p438
ssI11
(dp439
g17
Vprep
p440
sssI11
(dp441
I12
(dp442
g17
Vpobj
p443
sssI12
(dp444
ssg116
g410
sg117
(dp445
I0
(dp446
I7
g424
ssI1
(dp447
I2
g416
ssI2
(dp448
I0
g412
ssI4
(dp449
I5
g420
ssI5
(dp450
I7
g428
ssI6
(dp451
I7
g430
ssI7
(dp452
sI8
(dp453
I7
g426
ssI9
(dp454
I10
g437
ssI10
(dp455
I8
g433
ssI11
(dp456
I10
g439
ssI12
(dp457
I11
g442
sssg136
g410
sbsg137
F-125.21235519647598
sg138
g3
(g139
g5
NtRp458
(dp459
g12
(dp460
I0
(dp461
g15
g376
sg17
g377
ssI1
(dp462
g15
g379
sg17
g380
ssI2
(dp463
g15
S'O'
sg17
g382
ssI4
(dp464
g15
g384
sg17
g385
ssI5
(dp465
g15
g387
sg17
g388
ssI6
(dp466
g15
g390
sg17
g391
ssI7
(dp467
g15
g393
sg17
g394
ssI8
(dp468
g15
g396
sg17
g397
ssI9
(dp469
g15
g399
sg17
g400
ssI10
(dp470
g15
g402
sg17
g403
ssI11
(dp471
g15
g405
sg17
g406
ssI12
(dp472
g15
S'E'
sg17
g408
sssg63
(dp473
sg116
(dp474
I0
(dp475
I2
(dp476
g17
g413
ssI7
(dp477
g17
g425
sssI1
(dp478
I2
(dp479
g17
g417
sssI2
(dp480
I0
g476
sI1
g479
ssI4
(dp481
I5
(dp482
g17
g421
sssI5
(dp483
I4
g482
sI7
(dp484
g17
g429
sssI6
(dp485
I7
(dp486
g17
g431
sssI7
(dp487
I0
g477
sI8
(dp488
g17
g427
ssI5
g484
sI6
g486
ssI8
(dp489
I10
(dp490
g17
g434
ssI7
g488
ssI9
(dp491
I10
(dp492
g17
g438
sssI10
(dp493
I8
g490
sI9
g492
sI11
(dp494
g17
g440
sssI11
(dp495
I10
g494
sI12
(dp496
g17
g443
sssI12
(dp497
I11
g496
sssg136
g474
sbsg195
I0
sg196
(dp498
I0
g376
sI1
g379
sI2
S'O'
sI3
S','
sI4
g384
sI5
g387
sI6
g390
sI7
g393
sI8
g396
sI9
g399
sI10
g402
sI11
g405
sI12
S'E'
sI13
S'.'
ssbsI1
g3
(g4
g5
NtRp499
(dp500
g8
g3
(g9
g5
NtRp501
(dp502
g12
(dp503
I0
(dp504
g15
S'If'
p505
sg17
S'If-0'
p506
ssI1
(dp507
g15
S'CD'
p508
sg17
S'CD-1'
p509
ssI2
(dp510
g15
g59
sg17
S'equals-2'
p511
ssI3
(dp512
g15
S'8'
sg17
S'8-3'
p513
ssI4
(dp514
g15
S'and'
p515
sg17
S'and-4'
p516
ssI5
(dp517
g15
S'BE'
p518
sg17
S'BE-5'
p519
ssI6
(dp520
g15
g59
sg17
S'equals-6'
p521
ssI7
(dp522
g15
S'2'
sg17
S'2-7'
p523
ssI9
(dp524
g15
S'find'
p525
sg17
S'find-9'
p526
ssI10
(dp527
g15
S'AE'
p528
sg17
S'AE-10'
p529
sssg63
(dp530
sg65
(dp531
I0
(dp532
sI1
(dp533
sI2
(dp534
I0
(dp535
g17
Vmark
p536
ssI1
(dp537
g17
Vnsubj
p538
ssI6
(dp539
g17
Vccomp
p540
sssI3
(dp541
I4
(dp542
g17
Vcc
p543
ssI5
(dp544
g17
Vconj
p545
sssI4
(dp546
sI5
(dp547
sI6
(dp548
I3
(dp549
g17
Vnsubj
p550
ssI7
(dp551
g17
Vdobj
p552
sssI7
(dp553
sI9
(dp554
I2
(dp555
g17
Vadvcl
p556
ssI10
(dp557
g17
Vdobj
p558
sssI10
(dp559
ssg116
g531
sg117
(dp560
I0
(dp561
I2
g535
ssI1
(dp562
I2
g537
ssI2
(dp563
I9
g555
ssI3
(dp564
I6
g549
ssI4
(dp565
I3
g542
ssI5
(dp566
I3
g544
ssI6
(dp567
I2
g539
ssI7
(dp568
I6
g551
ssI9
(dp569
sI10
(dp570
I9
g557
sssg136
g531
sbsg137
F-109.71089035272598
sg138
g3
(g139
g5
NtRp571
(dp572
g12
(dp573
I0
(dp574
g15
g505
sg17
g506
ssI1
(dp575
g15
g508
sg17
g509
ssI2
(dp576
g15
g59
sg17
g511
ssI3
(dp577
g15
S'8'
sg17
g513
ssI4
(dp578
g15
g515
sg17
g516
ssI5
(dp579
g15
g518
sg17
g519
ssI6
(dp580
g15
g59
sg17
g521
ssI7
(dp581
g15
S'2'
sg17
g523
ssI9
(dp582
g15
g525
sg17
g526
ssI10
(dp583
g15
g528
sg17
g529
sssg63
(dp584
sg116
(dp585
I0
(dp586
I2
(dp587
g17
g536
sssI1
(dp588
I2
(dp589
g17
g538
sssI2
(dp590
I0
g587
sI1
g589
sI6
(dp591
g17
g540
ssI9
(dp592
g17
g556
sssI3
(dp593
I4
(dp594
g17
g543
ssI5
(dp595
g17
g545
ssI6
(dp596
g17
g550
sssI4
(dp597
I3
g594
ssI5
(dp598
I3
g595
ssI6
(dp599
I2
g591
sI3
g596
sI7
(dp600
g17
g552
sssI7
(dp601
I6
g600
ssI9
(dp602
I2
g592
sI10
(dp603
g17
g558
sssI10
(dp604
I9
g603
sssg136
g585
sbsg195
I0
sg196
(dp605
I0
g505
sI1
g508
sI2
g59
sI3
S'8'
sI4
g515
sI5
g518
sI6
g59
sI7
S'2'
sI8
S','
sI9
g525
sI10
g528
sI11
S'.'
ssbssI3
(dp606
I0
g3
(g4
g5
NtRp607
(dp608
g8
g3
(g9
g5
NtRp609
(dp610
g12
(dp611
I0
(dp612
g15
S'The'
p613
sg17
S'The-0'
p614
ssI1
(dp615
g15
S'diagram'
p616
sg17
S'diagram-1'
p617
ssI2
(dp618
g15
S'at'
p619
sg17
S'at-2'
p620
ssI3
(dp621
g15
S'the'
p622
sg17
S'the-3'
p623
ssI4
(dp624
g15
S'right'
p625
sg17
S'right-4'
p626
ssI5
(dp627
g15
S'shows'
p628
sg17
S'shows-5'
p629
ssI6
(dp630
g15
S'the'
p631
sg17
S'the-6'
p632
ssI7
(dp633
g15
S'construction'
p634
sg17
S'construction-7'
p635
ssI8
(dp636
g15
S'of'
p637
sg17
S'of-8'
p638
ssI9
(dp639
g15
S'the'
p640
sg17
S'the-9'
p641
ssI10
(dp642
g15
S'perpendicular'
p643
sg17
S'perpendicular-10'
p644
ssI11
(dp645
g15
S'bisector'
p646
sg17
S'bisector-11'
p647
ssI12
(dp648
g15
S'of'
p649
sg17
S'of-12'
p650
ssI13
(dp651
g15
S'AB'
p652
sg17
S'AB-13'
p653
sssg63
(dp654
sg65
(dp655
I0
(dp656
sI1
(dp657
I0
(dp658
g17
Vdet
p659
ssI2
(dp660
g17
Vprep
p661
sssI2
(dp662
I4
(dp663
g17
Vpobj
p664
sssI3
(dp665
sI4
(dp666
I3
(dp667
g17
Vdet
p668
sssI5
(dp669
I1
(dp670
g17
Vnsubj
p671
ssI7
(dp672
g17
Vdobj
p673
sssI6
(dp674
sI7
(dp675
I8
(dp676
g17
Vprep
p677
ssI6
(dp678
g17
Vdet
p679
sssI8
(dp680
I11
(dp681
g17
Vpobj
p682
sssI9
(dp683
sI10
(dp684
sI11
(dp685
I9
(dp686
g17
Vdet
p687
ssI10
(dp688
g17
Vnn
p689
ssI12
(dp690
g17
Vprep
p691
sssI12
(dp692
I13
(dp693
g17
Vpobj
p694
sssI13
(dp695
ssg116
g655
sg117
(dp696
I0
(dp697
I1
g658
ssI1
(dp698
I5
g670
ssI2
(dp699
I1
g660
ssI3
(dp700
I4
g667
ssI4
(dp701
I2
g663
ssI5
(dp702
sI6
(dp703
I7
g678
ssI7
(dp704
I5
g672
ssI8
(dp705
I7
g676
ssI9
(dp706
I11
g686
ssI10
(dp707
I11
g688
ssI11
(dp708
I8
g681
ssI12
(dp709
I11
g690
ssI13
(dp710
I12
g693
sssg136
g655
sbsg137
F-96.576338350772858
sg138
g3
(g139
g5
NtRp711
(dp712
g12
(dp713
I0
(dp714
g15
g613
sg17
g614
ssI1
(dp715
g15
g616
sg17
g617
ssI2
(dp716
g15
g619
sg17
g620
ssI3
(dp717
g15
g622
sg17
g623
ssI4
(dp718
g15
g625
sg17
g626
ssI5
(dp719
g15
g628
sg17
g629
ssI6
(dp720
g15
g631
sg17
g632
ssI7
(dp721
g15
g634
sg17
g635
ssI8
(dp722
g15
g637
sg17
g638
ssI9
(dp723
g15
g640
sg17
g641
ssI10
(dp724
g15
g643
sg17
g644
ssI11
(dp725
g15
g646
sg17
g647
ssI12
(dp726
g15
g649
sg17
g650
ssI13
(dp727
g15
g652
sg17
g653
sssg63
(dp728
sg116
(dp729
I0
(dp730
I1
(dp731
g17
g659
sssI1
(dp732
I0
g731
sI2
(dp733
g17
g661
ssI5
(dp734
g17
g671
sssI2
(dp735
I1
g733
sI4
(dp736
g17
g664
sssI3
(dp737
I4
(dp738
g17
g668
sssI4
(dp739
I2
g736
sI3
g738
ssI5
(dp740
I1
g734
sI7
(dp741
g17
g673
sssI6
(dp742
I7
(dp743
g17
g679
sssI7
(dp744
I8
(dp745
g17
g677
ssI5
g741
sI6
g743
ssI8
(dp746
I11
(dp747
g17
g682
ssI7
g745
ssI9
(dp748
I11
(dp749
g17
g687
sssI10
(dp750
I11
(dp751
g17
g689
sssI11
(dp752
I8
g747
sI9
g749
sI10
g751
sI12
(dp753
g17
g691
sssI12
(dp754
I11
g753
sI13
(dp755
g17
g694
sssI13
(dp756
I12
g755
sssg136
g729
sbsg195
I0
sg196
(dp757
I0
g613
sI1
g616
sI2
g619
sI3
g622
sI4
g625
sI5
g628
sI6
g631
sI7
g634
sI8
g637
sI9
g640
sI10
g643
sI11
g646
sI12
g649
sI13
g652
sI14
S'.'
ssbsI1
g3
(g4
g5
NtRp758
(dp759
g8
g3
(g9
g5
NtRp760
(dp761
g12
(dp762
I0
(dp763
g15
S'Which'
p764
sg17
S'Which-0'
p765
ssI1
(dp766
g15
S'statement'
p767
sg17
S'statement-1'
p768
ssI2
(dp769
g15
S'is'
p770
sg17
S'is-2'
p771
ssI3
(dp772
g15
S'not'
p773
sg17
S'not-3'
p774
ssI4
(dp775
g15
S'true'
p776
sg17
S'true-4'
p777
sssg63
(dp778
sg65
(dp779
I0
(dp780
sI1
(dp781
I0
(dp782
g17
Vdet
p783
sssI2
(dp784
sI3
(dp785
sI4
(dp786
I1
(dp787
g17
Vnsubj
p788
ssI2
(dp789
g17
Vcop
p790
ssI3
(dp791
g17
Vneg
p792
ssssg116
g779
sg117
(dp793
I0
(dp794
I1
g782
ssI1
(dp795
I4
g787
ssI2
(dp796
I4
g789
ssI3
(dp797
I4
g791
ssI4
(dp798
ssg136
g779
sbsg137
F-42.205662250518799
sg138
g3
(g139
g5
NtRp799
(dp800
g12
(dp801
I0
(dp802
g15
g764
sg17
g765
ssI1
(dp803
g15
g767
sg17
g768
ssI2
(dp804
g15
g770
sg17
g771
ssI3
(dp805
g15
g773
sg17
g774
ssI4
(dp806
g15
g776
sg17
g777
sssg63
(dp807
sg116
(dp808
I0
(dp809
I1
(dp810
g17
g783
sssI1
(dp811
I0
g810
sI4
(dp812
g17
g788
sssI2
(dp813
I4
(dp814
g17
g790
sssI3
(dp815
I4
(dp816
g17
g792
sssI4
(dp817
I1
g812
sI2
g814
sI3
g816
sssg136
g808
sbsg195
I0
sg196
(dp818
I0
g764
sI1
g767
sI2
g770
sI3
g773
sI4
g776
sI5
S'?'
ssbssI4
(dp819
I0
g3
(g4
g5
NtRp820
(dp821
g8
g3
(g9
g5
NtRp822
(dp823
g12
(dp824
I0
(dp825
g15
S'The'
p826
sg17
S'The-0'
p827
ssI1
(dp828
g15
S'diagram'
p829
sg17
S'diagram-1'
p830
ssI2
(dp831
g15
S'below'
p832
sg17
S'below-2'
p833
ssI3
(dp834
g15
S'illustrates'
p835
sg17
S'illustrates-3'
p836
ssI4
(dp837
g15
S'the'
p838
sg17
S'the-4'
p839
ssI5
(dp840
g15
S'construction'
p841
sg17
S'construction-5'
p842
ssI6
(dp843
g15
S'of'
p844
sg17
S'of-6'
p845
ssI7
(dp846
g15
S'line'
p847
sg17
S'line-7'
p848
ssI8
(dp849
g15
S'PS'
p850
sg17
S'PS-8'
p851
ssI9
(dp852
g15
S'parallel'
p853
sg17
S'parallel-9'
p854
ssI10
(dp855
g15
S'to'
p856
sg17
S'to-10'
p857
ssI11
(dp858
g15
S'line'
p859
sg17
S'line-11'
p860
ssI12
(dp861
g15
S'RQ'
p862
sg17
S'RQ-12'
p863
ssI13
(dp864
g15
S'through'
p865
sg17
S'through-13'
p866
ssI14
(dp867
g15
S'point'
p868
sg17
S'point-14'
p869
ssI15
(dp870
g15
S'P'
sg17
S'P-15'
p871
sssg63
(dp872
sg65
(dp873
I0
(dp874
sI1
(dp875
I0
(dp876
g17
Vdet
p877
sssI2
(dp878
sI3
(dp879
I1
(dp880
g17
Vnsubj
p881
ssI2
(dp882
g17
Vadvmod
p883
ssI11
(dp884
g17
Vxcomp
p885
ssI5
(dp886
g17
Vdobj
p887
sssI4
(dp888
sI5
(dp889
I4
(dp890
g17
Vdet
p891
ssI6
(dp892
g17
Vprep
p893
sssI6
(dp894
I9
(dp895
g17
Vpobj
p896
sssI7
(dp897
sI8
(dp898
sI9
(dp899
I8
(dp900
g17
Vnn
p901
ssI7
(dp902
g17
Vnn
p903
sssI10
(dp904
sI11
(dp905
I10
(dp906
g17
Vaux
p907
ssI12
(dp908
g17
Vdobj
p909
ssI13
(dp910
g17
Vprep
p911
sssI12
(dp912
sI13
(dp913
I15
(dp914
g17
Vpobj
p915
sssI14
(dp916
sI15
(dp917
I14
(dp918
g17
Vnn
p919
ssssg116
g873
sg117
(dp920
I0
(dp921
I1
g876
ssI1
(dp922
I3
g880
ssI2
(dp923
I3
g882
ssI3
(dp924
sI4
(dp925
I5
g890
ssI5
(dp926
I3
g886
ssI6
(dp927
I5
g892
ssI7
(dp928
I9
g902
ssI8
(dp929
I9
g900
ssI9
(dp930
I6
g895
ssI10
(dp931
I11
g906
ssI11
(dp932
I3
g884
ssI12
(dp933
I11
g908
ssI13
(dp934
I11
g910
ssI14
(dp935
I15
g918
ssI15
(dp936
I13
g914
sssg136
g873
sbsg137
F-148.77023178339005
sg138
g3
(g139
g5
NtRp937
(dp938
g12
(dp939
I0
(dp940
g15
g826
sg17
g827
ssI1
(dp941
g15
g829
sg17
g830
ssI2
(dp942
g15
g832
sg17
g833
ssI3
(dp943
g15
g835
sg17
g836
ssI4
(dp944
g15
g838
sg17
g839
ssI5
(dp945
g15
g841
sg17
g842
ssI6
(dp946
g15
g844
sg17
g845
ssI7
(dp947
g15
g847
sg17
g848
ssI8
(dp948
g15
g850
sg17
g851
ssI9
(dp949
g15
g853
sg17
g854
ssI10
(dp950
g15
g856
sg17
g857
ssI11
(dp951
g15
g859
sg17
g860
ssI12
(dp952
g15
g862
sg17
g863
ssI13
(dp953
g15
g865
sg17
g866
ssI14
(dp954
g15
g868
sg17
g869
ssI15
(dp955
g15
S'P'
sg17
g871
sssg63
(dp956
sg116
(dp957
I0
(dp958
I1
(dp959
g17
g877
sssI1
(dp960
I0
g959
sI3
(dp961
g17
g881
sssI2
(dp962
I3
(dp963
g17
g883
sssI3
(dp964
I1
g961
sI2
g963
sI11
(dp965
g17
g885
ssI5
(dp966
g17
g887
sssI4
(dp967
I5
(dp968
g17
g891
sssI5
(dp969
I3
g966
sI4
g968
sI6
(dp970
g17
g893
sssI6
(dp971
I9
(dp972
g17
g896
ssI5
g970
ssI7
(dp973
I9
(dp974
g17
g903
sssI8
(dp975
I9
(dp976
g17
g901
sssI9
(dp977
I8
g976
sI6
g972
sI7
g974
ssI10
(dp978
I11
(dp979
g17
g907
sssI11
(dp980
I10
g979
sI3
g965
sI12
(dp981
g17
g909
ssI13
(dp982
g17
g911
sssI12
(dp983
I11
g981
ssI13
(dp984
I11
g982
sI15
(dp985
g17
g915
sssI14
(dp986
I15
(dp987
g17
g919
sssI15
(dp988
I13
g985
sI14
g987
sssg136
g957
sbsg195
I0
sg196
(dp989
I0
g826
sI1
g829
sI2
g832
sI3
g835
sI4
g838
sI5
g841
sI6
g844
sI7
g847
sI8
g850
sI9
g853
sI10
g856
sI11
g859
sI12
g862
sI13
g865
sI14
g868
sI15
S'P'
sI16
S'.'
ssbsI1
g3
(g4
g5
NtRp990
(dp991
g8
g3
(g9
g5
NtRp992
(dp993
g12
(dp994
I0
(dp995
g15
S'Which'
p996
sg17
S'Which-0'
p997
ssI1
(dp998
g15
S'statement'
p999
sg17
S'statement-1'
p1000
ssI2
(dp1001
g15
S'justifies'
p1002
sg17
S'justifies-2'
p1003
ssI3
(dp1004
g15
S'this'
p1005
sg17
S'this-3'
p1006
ssI4
(dp1007
g15
S'construction'
p1008
sg17
S'construction-4'
p1009
sssg63
(dp1010
sg65
(dp1011
I0
(dp1012
sI1
(dp1013
I0
(dp1014
g17
Vdet
p1015
sssI2
(dp1016
I1
(dp1017
g17
Vnsubj
p1018
ssI4
(dp1019
g17
Vdobj
p1020
sssI3
(dp1021
sI4
(dp1022
I3
(dp1023
g17
Vdet
p1024
ssssg116
g1011
sg117
(dp1025
I0
(dp1026
I1
g1014
ssI1
(dp1027
I2
g1017
ssI2
(dp1028
sI3
(dp1029
I4
g1023
ssI4
(dp1030
I2
g1019
sssg136
g1011
sbsg137
F-50.227550983428955
sg138
g3
(g139
g5
NtRp1031
(dp1032
g12
(dp1033
I0
(dp1034
g15
g996
sg17
g997
ssI1
(dp1035
g15
g999
sg17
g1000
ssI2
(dp1036
g15
g1002
sg17
g1003
ssI3
(dp1037
g15
g1005
sg17
g1006
ssI4
(dp1038
g15
g1008
sg17
g1009
sssg63
(dp1039
sg116
(dp1040
I0
(dp1041
I1
(dp1042
g17
g1015
sssI1
(dp1043
I0
g1042
sI2
(dp1044
g17
g1018
sssI2
(dp1045
I1
g1044
sI4
(dp1046
g17
g1020
sssI3
(dp1047
I4
(dp1048
g17
g1024
sssI4
(dp1049
I2
g1046
sI3
g1048
sssg136
g1040
sbsg195
I0
sg196
(dp1050
I0
g996
sI1
g999
sI2
g1002
sI3
g1005
sI4
g1008
sI5
S'?'
ssbssI6
(dp1051
I0
g3
(g4
g5
NtRp1052
(dp1053
g8
g3
(g9
g5
NtRp1054
(dp1055
g12
(dp1056
I0
(dp1057
g15
S'Given'
p1058
sg17
S'Given-0'
p1059
ssI1
(dp1060
g15
S'triangle'
p1061
sg17
S'triangle-1'
p1062
ssI2
(dp1063
g15
S'ABC'
p1064
sg17
S'ABC-2'
p1065
ssI3
(dp1066
g15
S'with'
p1067
sg17
S'with-3'
p1068
ssI4
(dp1069
g15
S'base'
p1070
sg17
S'base-4'
p1071
ssI5
(dp1072
g15
S'AFEDC'
p1073
sg17
S'AFEDC-5'
p1074
ssI7
(dp1075
g15
S'median'
p1076
sg17
S'median-7'
p1077
ssI8
(dp1078
g15
S'BF'
p1079
sg17
S'BF-8'
p1080
ssI10
(dp1081
g15
S'altitude'
p1082
sg17
S'altitude-10'
p1083
ssI11
(dp1084
g15
S'BD'
p1085
sg17
S'BD-11'
p1086
ssI13
(dp1087
g15
S'and'
p1088
sg17
S'and-13'
p1089
ssI14
(dp1090
g15
S'BE'
p1091
sg17
S'BE-14'
p1092
ssI15
(dp1093
g15
S'bisects'
p1094
sg17
S'bisects-15'
p1095
ssI16
(dp1096
g15
S'angle'
p1097
sg17
S'angle-16'
p1098
ssI17
(dp1099
g15
S'ABC'
p1100
sg17
S'ABC-17'
p1101
ssI19
(dp1102
g15
S'which'
p1103
sg17
S'which-19'
p1104
ssI20
(dp1105
g15
S'conclusion'
p1106
sg17
S'conclusion-20'
p1107
ssI21
(dp1108
g15
S'is'
p1109
sg17
S'is-21'
p1110
ssI22
(dp1111
g15
S'valid'
p1112
sg17
S'valid-22'
p1113
sssg63
(dp1114
sg65
(dp1115
I0
(dp1116
I2
(dp1117
g17
Vpobj
p1118
sssI1
(dp1119
sI2
(dp1120
I1
(dp1121
g17
Vnn
p1122
ssI3
(dp1123
g17
Vprep
p1124
sssI3
(dp1125
I5
(dp1126
g17
Vpobj
p1127
sssI4
(dp1128
sI5
(dp1129
I8
(dp1130
g17
Vconj
p1131
ssI11
(dp1132
g17
Vconj
p1133
ssI4
(dp1134
g17
Vnn
p1135
ssI13
(dp1136
g17
Vcc
p1137
ssI14
(dp1138
g17
Vconj
p1139
sssI7
(dp1140
sI8
(dp1141
I7
(dp1142
g17
Vamod
p1143
sssI10
(dp1144
sI11
(dp1145
I10
(dp1146
g17
Vnn
p1147
sssI13
(dp1148
sI14
(dp1149
sI15
(dp1150
I0
(dp1151
g17
Vprep
p1152
ssI17
(dp1153
g17
Vnsubj
p1154
sssI16
(dp1155
sI17
(dp1156
I16
(dp1157
g17
Vnn
p1158
ssI22
(dp1159
g17
Vrcmod
p1160
sssI19
(dp1161
sI20
(dp1162
sI21
(dp1163
sI22
(dp1164
I19
(dp1165
g17
Vdobj
p1166
ssI20
(dp1167
g17
Vnsubj
p1168
ssI21
(dp1169
g17
Vcop
p1170
ssssg116
g1115
sg117
(dp1171
I0
(dp1172
I15
g1151
ssI1
(dp1173
I2
g1121
ssI2
(dp1174
I0
g1117
ssI3
(dp1175
I2
g1123
ssI4
(dp1176
I5
g1134
ssI5
(dp1177
I3
g1126
ssI7
(dp1178
I8
g1142
ssI8
(dp1179
I5
g1130
ssI10
(dp1180
I11
g1146
ssI11
(dp1181
I5
g1132
ssI13
(dp1182
I5
g1136
ssI14
(dp1183
I5
g1138
ssI15
(dp1184
sI16
(dp1185
I17
g1157
ssI17
(dp1186
I15
g1153
ssI19
(dp1187
I22
g1165
ssI20
(dp1188
I22
g1167
ssI21
(dp1189
I22
g1169
ssI22
(dp1190
I17
g1159
sssg136
g1115
sbsg137
F-230.97023510932922
sg138
g3
(g139
g5
NtRp1191
(dp1192
g12
(dp1193
I0
(dp1194
g15
g1058
sg17
g1059
ssI1
(dp1195
g15
g1061
sg17
g1062
ssI2
(dp1196
g15
g1064
sg17
g1065
ssI3
(dp1197
g15
g1067
sg17
g1068
ssI4
(dp1198
g15
g1070
sg17
g1071
ssI5
(dp1199
g15
g1073
sg17
g1074
ssI7
(dp1200
g15
g1076
sg17
g1077
ssI8
(dp1201
g15
g1079
sg17
g1080
ssI10
(dp1202
g15
g1082
sg17
g1083
ssI11
(dp1203
g15
g1085
sg17
g1086
ssI13
(dp1204
g15
g1088
sg17
g1089
ssI14
(dp1205
g15
g1091
sg17
g1092
ssI15
(dp1206
g15
g1094
sg17
g1095
ssI16
(dp1207
g15
g1097
sg17
g1098
ssI17
(dp1208
g15
g1100
sg17
g1101
ssI19
(dp1209
g15
g1103
sg17
g1104
ssI20
(dp1210
g15
g1106
sg17
g1107
ssI21
(dp1211
g15
g1109
sg17
g1110
ssI22
(dp1212
g15
g1112
sg17
g1113
sssg63
(dp1213
sg116
(dp1214
I0
(dp1215
I2
(dp1216
g17
g1118
ssI15
(dp1217
g17
g1152
sssI1
(dp1218
I2
(dp1219
g17
g1122
sssI2
(dp1220
I0
g1216
sI1
g1219
sI3
(dp1221
g17
g1124
sssI3
(dp1222
I2
g1221
sI5
(dp1223
g17
g1127
sssI4
(dp1224
I5
(dp1225
g17
g1135
sssI5
(dp1226
I3
g1223
sI4
g1225
sI8
(dp1227
g17
g1131
ssI11
(dp1228
g17
g1133
ssI13
(dp1229
g17
g1137
ssI14
(dp1230
g17
g1139
sssI7
(dp1231
I8
(dp1232
g17
g1143
sssI8
(dp1233
I5
g1227
sI7
g1232
ssI10
(dp1234
I11
(dp1235
g17
g1147
sssI11
(dp1236
I10
g1235
sI5
g1228
ssI13
(dp1237
I5
g1229
ssI14
(dp1238
I5
g1230
ssI15
(dp1239
I0
g1217
sI17
(dp1240
g17
g1154
sssI16
(dp1241
I17
(dp1242
g17
g1158
sssI17
(dp1243
I16
g1242
sI22
(dp1244
g17
g1160
ssI15
g1240
ssI19
(dp1245
I22
(dp1246
g17
g1166
sssI20
(dp1247
I22
(dp1248
g17
g1168
sssI21
(dp1249
I22
(dp1250
g17
g1170
sssI22
(dp1251
I17
g1244
sI19
g1246
sI20
g1248
sI21
g1250
sssg136
g1214
sbsg195
I0
sg196
(dp1252
I0
g1058
sI1
g1061
sI2
g1064
sI3
g1067
sI4
g1070
sI5
g1073
sI6
S','
sI7
g1076
sI8
g1079
sI9
S','
sI10
g1082
sI11
g1085
sI12
S','
sI13
g1088
sI14
g1091
sI15
g1094
sI16
g1097
sI17
g1100
sI18
S','
sI19
g1103
sI20
g1106
sI21
g1109
sI22
g1112
sI23
S'?'
ssbssI9
(dp1253
I0
g3
(g4
g5
NtRp1254
(dp1255
g8
g3
(g9
g5
NtRp1256
(dp1257
g12
(dp1258
I0
(dp1259
g15
S'In'
p1260
sg17
S'In-0'
p1261
ssI1
(dp1262
g15
S'the'
p1263
sg17
S'the-1'
p1264
ssI2
(dp1265
g15
S'diagram'
p1266
sg17
S'diagram-2'
p1267
ssI3
(dp1268
g15
S'below'
p1269
sg17
S'below-3'
p1270
ssI4
(dp1271
g15
S'of'
p1272
sg17
S'of-4'
p1273
ssI5
(dp1274
g15
S'triangle'
p1275
sg17
S'triangle-5'
p1276
ssI6
(dp1277
g15
S'ABC'
p1278
sg17
S'ABC-6'
p1279
ssI8
(dp1280
g15
S'D'
sg17
S'D-8'
p1281
ssI9
(dp1282
g15
S'is'
p1283
sg17
S'is-9'
p1284
ssI10
(dp1285
g15
S'a'
sg17
S'a-10'
p1286
ssI11
(dp1287
g15
S'point'
p1288
sg17
S'point-11'
p1289
ssI12
(dp1290
g15
S'on'
p1291
sg17
S'on-12'
p1292
ssI13
(dp1293
g15
S'line'
p1294
sg17
S'line-13'
p1295
ssI14
(dp1296
g15
S'AB'
p1297
sg17
S'AB-14'
p1298
ssI16
(dp1299
g15
S'AC'
p1300
sg17
S'AC-16'
p1301
ssI17
(dp1302
g15
g59
sg17
S'equals-17'
p1303
ssI18
(dp1304
g15
S'7'
sg17
S'7-18'
p1305
ssI20
(dp1306
g15
S'AD'
p1307
sg17
S'AD-20'
p1308
ssI21
(dp1309
g15
g59
sg17
S'equals-21'
p1310
ssI22
(dp1311
g15
S'6'
sg17
S'6-22'
p1312
ssI24
(dp1313
g15
S'and'
p1314
sg17
S'and-24'
p1315
ssI25
(dp1316
g15
S'BC'
p1317
sg17
S'BC-25'
p1318
ssI26
(dp1319
g15
g59
sg17
S'equals-26'
p1320
ssI27
(dp1321
g15
S'18'
p1322
sg17
S'18-27'
p1323
sssg63
(dp1324
sg65
(dp1325
I0
(dp1326
I2
(dp1327
g17
Vpobj
p1328
sssI1
(dp1329
sI2
(dp1330
I1
(dp1331
g17
Vdet
p1332
ssI4
(dp1333
g17
Vprep
p1334
sssI3
(dp1335
sI4
(dp1336
I3
(dp1337
g17
Vadvmod
p1338
ssI6
(dp1339
g17
Vpobj
p1340
sssI5
(dp1341
sI6
(dp1342
I5
(dp1343
g17
Vnn
p1344
sssI8
(dp1345
sI9
(dp1346
sI10
(dp1347
sI11
(dp1348
I0
(dp1349
g17
Vprep
p1350
ssI8
(dp1351
g17
Vnsubj
p1352
ssI9
(dp1353
g17
Vcop
p1354
ssI10
(dp1355
g17
Vdet
p1356
ssI12
(dp1357
g17
Vprep
p1358
ssI17
(dp1359
g17
Vccomp
p1360
ssI21
(dp1361
g17
Vccomp
p1362
ssI24
(dp1363
g17
Vcc
p1364
ssI26
(dp1365
g17
Vconj
p1366
sssI12
(dp1367
I14
(dp1368
g17
Vpobj
p1369
sssI13
(dp1370
sI14
(dp1371
I13
(dp1372
g17
Vnn
p1373
sssI16
(dp1374
sI17
(dp1375
I16
(dp1376
g17
Vnsubj
p1377
ssI18
(dp1378
g17
Vdobj
p1379
sssI18
(dp1380
sI20
(dp1381
sI21
(dp1382
I20
(dp1383
g17
Vnsubj
p1384
ssI22
(dp1385
g17
Vdobj
p1386
sssI22
(dp1387
sI24
(dp1388
sI25
(dp1389
sI26
(dp1390
I25
(dp1391
g17
Vnsubj
p1392
ssI27
(dp1393
g17
Vdobj
p1394
sssI27
(dp1395
ssg116
g1325
sg117
(dp1396
I0
(dp1397
I11
g1349
ssI1
(dp1398
I2
g1331
ssI2
(dp1399
I0
g1327
ssI3
(dp1400
I4
g1337
ssI4
(dp1401
I2
g1333
ssI5
(dp1402
I6
g1343
ssI6
(dp1403
I4
g1339
ssI8
(dp1404
I11
g1351
ssI9
(dp1405
I11
g1353
ssI10
(dp1406
I11
g1355
ssI11
(dp1407
sI12
(dp1408
I11
g1357
ssI13
(dp1409
I14
g1372
ssI14
(dp1410
I12
g1368
ssI16
(dp1411
I17
g1376
ssI17
(dp1412
I11
g1359
ssI18
(dp1413
I17
g1378
ssI20
(dp1414
I21
g1383
ssI21
(dp1415
I11
g1361
ssI22
(dp1416
I21
g1385
ssI24
(dp1417
I11
g1363
ssI25
(dp1418
I26
g1391
ssI26
(dp1419
I11
g1365
ssI27
(dp1420
I26
g1393
sssg136
g1325
sbsg137
F-237.37296921014786
sg138
g3
(g139
g5
NtRp1421
(dp1422
g12
(dp1423
I0
(dp1424
g15
g1260
sg17
g1261
ssI1
(dp1425
g15
g1263
sg17
g1264
ssI2
(dp1426
g15
g1266
sg17
g1267
ssI3
(dp1427
g15
g1269
sg17
g1270
ssI4
(dp1428
g15
g1272
sg17
g1273
ssI5
(dp1429
g15
g1275
sg17
g1276
ssI6
(dp1430
g15
g1278
sg17
g1279
ssI8
(dp1431
g15
S'D'
sg17
g1281
ssI9
(dp1432
g15
g1283
sg17
g1284
ssI10
(dp1433
g15
S'a'
sg17
g1286
ssI11
(dp1434
g15
g1288
sg17
g1289
ssI12
(dp1435
g15
g1291
sg17
g1292
ssI13
(dp1436
g15
g1294
sg17
g1295
ssI14
(dp1437
g15
g1297
sg17
g1298
ssI16
(dp1438
g15
g1300
sg17
g1301
ssI17
(dp1439
g15
g59
sg17
g1303
ssI18
(dp1440
g15
S'7'
sg17
g1305
ssI20
(dp1441
g15
g1307
sg17
g1308
ssI21
(dp1442
g15
g59
sg17
g1310
ssI22
(dp1443
g15
S'6'
sg17
g1312
ssI24
(dp1444
g15
g1314
sg17
g1315
ssI25
(dp1445
g15
g1317
sg17
g1318
ssI26
(dp1446
g15
g59
sg17
g1320
ssI27
(dp1447
g15
g1322
sg17
g1323
sssg63
(dp1448
sg116
(dp1449
I0
(dp1450
I2
(dp1451
g17
g1328
ssI11
(dp1452
g17
g1350
sssI1
(dp1453
I2
(dp1454
g17
g1332
sssI2
(dp1455
I0
g1451
sI1
g1454
sI4
(dp1456
g17
g1334
sssI3
(dp1457
I4
(dp1458
g17
g1338
sssI4
(dp1459
I2
g1456
sI3
g1458
sI6
(dp1460
g17
g1340
sssI5
(dp1461
I6
(dp1462
g17
g1344
sssI6
(dp1463
I4
g1460
sI5
g1462
ssI8
(dp1464
I11
(dp1465
g17
g1352
sssI9
(dp1466
I11
(dp1467
g17
g1354
sssI10
(dp1468
I11
(dp1469
g17
g1356
sssI11
(dp1470
I0
g1452
sI8
g1465
sI9
g1467
sI10
g1469
sI12
(dp1471
g17
g1358
ssI17
(dp1472
g17
g1360
ssI21
(dp1473
g17
g1362
ssI24
(dp1474
g17
g1364
ssI26
(dp1475
g17
g1366
sssI12
(dp1476
I11
g1471
sI14
(dp1477
g17
g1369
sssI13
(dp1478
I14
(dp1479
g17
g1373
sssI14
(dp1480
I12
g1477
sI13
g1479
ssI16
(dp1481
I17
(dp1482
g17
g1377
sssI17
(dp1483
I16
g1482
sI18
(dp1484
g17
g1379
ssI11
g1472
ssI18
(dp1485
I17
g1484
ssI20
(dp1486
I21
(dp1487
g17
g1384
sssI21
(dp1488
I11
g1473
sI20
g1487
sI22
(dp1489
g17
g1386
sssI22
(dp1490
I21
g1489
ssI24
(dp1491
I11
g1474
ssI25
(dp1492
I26
(dp1493
g17
g1392
sssI26
(dp1494
I27
(dp1495
g17
g1394
ssI25
g1493
sI11
g1475
ssI27
(dp1496
I26
g1495
sssg136
g1449
sbsg195
I0
sg196
(dp1497
I0
g1260
sI1
g1263
sI2
g1266
sI3
g1269
sI4
g1272
sI5
g1275
sI6
g1278
sI7
S','
sI8
S'D'
sI9
g1283
sI10
S'a'
sI11
g1288
sI12
g1291
sI13
g1294
sI14
g1297
sI15
S','
sI16
g1300
sI17
g59
sI18
S'7'
sI19
S','
sI20
g1307
sI21
g59
sI22
S'6'
sI23
S','
sI24
g1314
sI25
g1317
sI26
g59
sI27
g1322
sI28
S'.'
ssbsI1
g3
(g4
g5
NtRp1498
(dp1499
g8
g3
(g9
g5
NtRp1500
(dp1501
g12
(dp1502
I0
(dp1503
g15
S'The'
p1504
sg17
S'The-0'
p1505
ssI1
(dp1506
g15
S'length'
p1507
sg17
S'length-1'
p1508
ssI2
(dp1509
g15
S'of'
p1510
sg17
S'of-2'
p1511
ssI3
(dp1512
g15
S'line'
p1513
sg17
S'line-3'
p1514
ssI4
(dp1515
g15
S'DB'
p1516
sg17
S'DB-4'
p1517
ssI5
(dp1518
g15
S'could'
p1519
sg17
S'could-5'
p1520
ssI6
(dp1521
g15
S'be'
p1522
sg17
S'be-6'
p1523
sssg63
(dp1524
sg65
(dp1525
I0
(dp1526
sI1
(dp1527
I0
(dp1528
g17
Vdet
p1529
ssI2
(dp1530
g17
Vprep
p1531
sssI2
(dp1532
I4
(dp1533
g17
Vpobj
p1534
sssI3
(dp1535
sI4
(dp1536
I3
(dp1537
g17
Vnn
p1538
sssI5
(dp1539
sI6
(dp1540
I1
(dp1541
g17
Vnsubj
p1542
ssI5
(dp1543
g17
Vaux
p1544
ssssg116
g1525
sg117
(dp1545
I0
(dp1546
I1
g1528
ssI1
(dp1547
I6
g1541
ssI2
(dp1548
I1
g1530
ssI3
(dp1549
I4
g1537
ssI4
(dp1550
I2
g1533
ssI5
(dp1551
I6
g1543
ssI6
(dp1552
ssg136
g1525
sbsg137
F-59.713354647159576
sg138
g3
(g139
g5
NtRp1553
(dp1554
g12
(dp1555
I0
(dp1556
g15
g1504
sg17
g1505
ssI1
(dp1557
g15
g1507
sg17
g1508
ssI2
(dp1558
g15
g1510
sg17
g1511
ssI3
(dp1559
g15
g1513
sg17
g1514
ssI4
(dp1560
g15
g1516
sg17
g1517
ssI5
(dp1561
g15
g1519
sg17
g1520
ssI6
(dp1562
g15
g1522
sg17
g1523
sssg63
(dp1563
sg116
(dp1564
I0
(dp1565
I1
(dp1566
g17
g1529
sssI1
(dp1567
I0
g1566
sI2
(dp1568
g17
g1531
ssI6
(dp1569
g17
g1542
sssI2
(dp1570
I1
g1568
sI4
(dp1571
g17
g1534
sssI3
(dp1572
I4
(dp1573
g17
g1538
sssI4
(dp1574
I2
g1571
sI3
g1573
ssI5
(dp1575
I6
(dp1576
g17
g1544
sssI6
(dp1577
I1
g1569
sI5
g1576
sssg136
g1564
sbsg195
I0
sg196
(dp1578
I0
g1504
sI1
g1507
sI2
g1510
sI3
g1513
sI4
g1516
sI5
g1519
sI6
g1522
ssbssI12
(dp1579
I0
g3
(g4
g5
NtRp1580
(dp1581
g8
g3
(g9
g5
NtRp1582
(dp1583
g12
(dp1584
I0
(dp1585
g15
S'In'
p1586
sg17
S'In-0'
p1587
ssI1
(dp1588
g15
S'triangle'
p1589
sg17
S'triangle-1'
p1590
ssI2
(dp1591
g15
S'ABC'
p1592
sg17
S'ABC-2'
p1593
ssI4
(dp1594
g15
S'line'
p1595
sg17
S'line-4'
p1596
ssI5
(dp1597
g15
S'DE'
p1598
sg17
S'DE-5'
p1599
ssI6
(dp1600
g15
S'is'
p1601
sg17
S'is-6'
p1602
ssI7
(dp1603
g15
S'parallel'
p1604
sg17
S'parallel-7'
p1605
ssI8
(dp1606
g15
S'with'
p1607
sg17
S'with-8'
p1608
ssI9
(dp1609
g15
S'line'
p1610
sg17
S'line-9'
p1611
ssI10
(dp1612
g15
S'AC'
p1613
sg17
S'AC-10'
p1614
ssI12
(dp1615
g15
S'DB'
p1616
sg17
S'DB-12'
p1617
ssI13
(dp1618
g15
g59
sg17
S'equals-13'
p1619
ssI14
(dp1620
g15
S'4'
sg17
S'4-14'
p1621
ssI16
(dp1622
g15
S'AD'
p1623
sg17
S'AD-16'
p1624
ssI17
(dp1625
g15
g59
sg17
S'equals-17'
p1626
ssI18
(dp1627
g15
S'8'
sg17
S'8-18'
p1628
ssI20
(dp1629
g15
S'and'
p1630
sg17
S'and-20'
p1631
ssI21
(dp1632
g15
S'DE'
p1633
sg17
S'DE-21'
p1634
ssI22
(dp1635
g15
g59
sg17
S'equals-22'
p1636
ssI23
(dp1637
g15
S'5'
sg17
S'5-23'
p1638
sssg63
(dp1639
sg65
(dp1640
I0
(dp1641
I2
(dp1642
g17
Vpobj
p1643
sssI1
(dp1644
sI2
(dp1645
I1
(dp1646
g17
Vnn
p1647
sssI4
(dp1648
sI5
(dp1649
I4
(dp1650
g17
Vnn
p1651
sssI6
(dp1652
I0
(dp1653
g17
Vprep
p1654
ssI5
(dp1655
g17
Vnsubj
p1656
ssI7
(dp1657
g17
Vadvmod
p1658
ssI8
(dp1659
g17
Vprep
p1660
ssI13
(dp1661
g17
Vccomp
p1662
ssI17
(dp1663
g17
Vccomp
p1664
ssI20
(dp1665
g17
Vcc
p1666
ssI22
(dp1667
g17
Vconj
p1668
sssI7
(dp1669
sI8
(dp1670
I10
(dp1671
g17
Vpobj
p1672
sssI9
(dp1673
sI10
(dp1674
I9
(dp1675
g17
Vnn
p1676
sssI12
(dp1677
sI13
(dp1678
I12
(dp1679
g17
Vnsubj
p1680
ssI14
(dp1681
g17
Vdobj
p1682
sssI14
(dp1683
sI16
(dp1684
sI17
(dp1685
I16
(dp1686
g17
Vnsubj
p1687
ssI18
(dp1688
g17
Vdobj
p1689
sssI18
(dp1690
sI20
(dp1691
sI21
(dp1692
sI22
(dp1693
I21
(dp1694
g17
Vnsubj
p1695
ssI23
(dp1696
g17
Vdobj
p1697
sssI23
(dp1698
ssg116
g1640
sg117
(dp1699
I0
(dp1700
I6
g1653
ssI1
(dp1701
I2
g1646
ssI2
(dp1702
I0
g1642
ssI4
(dp1703
I5
g1650
ssI5
(dp1704
I6
g1655
ssI6
(dp1705
sI7
(dp1706
I6
g1657
ssI8
(dp1707
I6
g1659
ssI9
(dp1708
I10
g1675
ssI10
(dp1709
I8
g1671
ssI12
(dp1710
I13
g1679
ssI13
(dp1711
I6
g1661
ssI14
(dp1712
I13
g1681
ssI16
(dp1713
I17
g1686
ssI17
(dp1714
I6
g1663
ssI18
(dp1715
I17
g1688
ssI20
(dp1716
I6
g1665
ssI21
(dp1717
I22
g1694
ssI22
(dp1718
I6
g1667
ssI23
(dp1719
I22
g1696
sssg136
g1640
sbsg137
F-223.13691574335098
sg138
g3
(g139
g5
NtRp1720
(dp1721
g12
(dp1722
I0
(dp1723
g15
g1586
sg17
g1587
ssI1
(dp1724
g15
g1589
sg17
g1590
ssI2
(dp1725
g15
g1592
sg17
g1593
ssI4
(dp1726
g15
g1595
sg17
g1596
ssI5
(dp1727
g15
g1598
sg17
g1599
ssI6
(dp1728
g15
g1601
sg17
g1602
ssI7
(dp1729
g15
g1604
sg17
g1605
ssI8
(dp1730
g15
g1607
sg17
g1608
ssI9
(dp1731
g15
g1610
sg17
g1611
ssI10
(dp1732
g15
g1613
sg17
g1614
ssI12
(dp1733
g15
g1616
sg17
g1617
ssI13
(dp1734
g15
g59
sg17
g1619
ssI14
(dp1735
g15
S'4'
sg17
g1621
ssI16
(dp1736
g15
g1623
sg17
g1624
ssI17
(dp1737
g15
g59
sg17
g1626
ssI18
(dp1738
g15
S'8'
sg17
g1628
ssI20
(dp1739
g15
g1630
sg17
g1631
ssI21
(dp1740
g15
g1633
sg17
g1634
ssI22
(dp1741
g15
g59
sg17
g1636
ssI23
(dp1742
g15
S'5'
sg17
g1638
sssg63
(dp1743
sg116
(dp1744
I0
(dp1745
I2
(dp1746
g17
g1643
ssI6
(dp1747
g17
g1654
sssI1
(dp1748
I2
(dp1749
g17
g1647
sssI2
(dp1750
I0
g1746
sI1
g1749
ssI4
(dp1751
I5
(dp1752
g17
g1651
sssI5
(dp1753
I4
g1752
sI6
(dp1754
g17
g1656
sssI6
(dp1755
I0
g1747
sI5
g1754
sI7
(dp1756
g17
g1658
ssI8
(dp1757
g17
g1660
ssI13
(dp1758
g17
g1662
ssI17
(dp1759
g17
g1664
ssI20
(dp1760
g17
g1666
ssI22
(dp1761
g17
g1668
sssI7
(dp1762
I6
g1756
ssI8
(dp1763
I10
(dp1764
g17
g1672
ssI6
g1757
ssI9
(dp1765
I10
(dp1766
g17
g1676
sssI10
(dp1767
I8
g1764
sI9
g1766
ssI12
(dp1768
I13
(dp1769
g17
g1680
sssI13
(dp1770
I12
g1769
sI14
(dp1771
g17
g1682
ssI6
g1758
ssI14
(dp1772
I13
g1771
ssI16
(dp1773
I17
(dp1774
g17
g1687
sssI17
(dp1775
I16
g1774
sI18
(dp1776
g17
g1689
ssI6
g1759
ssI18
(dp1777
I17
g1776
ssI20
(dp1778
I6
g1760
ssI21
(dp1779
I22
(dp1780
g17
g1695
sssI22
(dp1781
I21
g1780
sI6
g1761
sI23
(dp1782
g17
g1697
sssI23
(dp1783
I22
g1782
sssg136
g1744
sbsg195
I0
sg196
(dp1784
I0
g1586
sI1
g1589
sI2
g1592
sI3
S','
sI4
g1595
sI5
g1598
sI6
g1601
sI7
g1604
sI8
g1607
sI9
g1610
sI10
g1613
sI11
S','
sI12
g1616
sI13
g59
sI14
S'4'
sI15
S','
sI16
g1623
sI17
g59
sI18
S'8'
sI19
S','
sI20
g1630
sI21
g1633
sI22
g59
sI23
S'5'
sI24
S'.'
ssbsI1
g3
(g4
g5
NtRp1785
(dp1786
g8
g3
(g9
g5
NtRp1787
(dp1788
g12
(dp1789
I0
(dp1790
g15
S'Find'
p1791
sg17
S'Find-0'
p1792
ssI1
(dp1793
g15
S'AC'
p1794
sg17
S'AC-1'
p1795
sssg63
(dp1796
sg65
(dp1797
I0
(dp1798
I1
(dp1799
g17
Vdobj
p1800
sssI1
(dp1801
ssg116
g1797
sg117
(dp1802
I0
(dp1803
sI1
(dp1804
I0
g1799
sssg136
g1797
sbsg137
F-32.270574569702148
sg138
g3
(g139
g5
NtRp1805
(dp1806
g12
(dp1807
I0
(dp1808
g15
g1791
sg17
g1792
ssI1
(dp1809
g15
g1794
sg17
g1795
sssg63
(dp1810
sg116
(dp1811
I0
(dp1812
I1
(dp1813
g17
g1800
sssI1
(dp1814
I0
g1813
sssg136
g1811
sbsg195
I0
sg196
(dp1815
I0
g1791
sI1
g1794
sI2
S'.'
ssbssI16
(dp1816
I0
g3
(g4
g5
NtRp1817
(dp1818
g8
g3
(g9
g5
NtRp1819
(dp1820
g12
(dp1821
I0
(dp1822
g15
S'In'
p1823
sg17
S'In-0'
p1824
ssI1
(dp1825
g15
S'the'
p1826
sg17
S'the-1'
p1827
ssI2
(dp1828
g15
S'rhombus'
p1829
sg17
S'rhombus-2'
p1830
ssI3
(dp1831
g15
S'PQRS'
p1832
sg17
S'PQRS-3'
p1833
ssI5
(dp1834
g15
S'PR'
p1835
sg17
S'PR-5'
p1836
ssI6
(dp1837
g15
g59
sg17
S'equals-6'
p1838
ssI7
(dp1839
g15
S'24'
p1840
sg17
S'24-7'
p1841
ssI8
(dp1842
g15
S'and'
p1843
sg17
S'and-8'
p1844
ssI9
(dp1845
g15
S'QS'
p1846
sg17
S'QS-9'
p1847
ssI10
(dp1848
g15
g59
sg17
S'equals-10'
p1849
ssI11
(dp1850
g15
S'10'
p1851
sg17
S'10-11'
p1852
sssg63
(dp1853
sg65
(dp1854
I0
(dp1855
I3
(dp1856
g17
Vpobj
p1857
sssI1
(dp1858
sI2
(dp1859
sI3
(dp1860
I1
(dp1861
g17
Vdet
p1862
ssI2
(dp1863
g17
Vamod
p1864
sssI5
(dp1865
sI6
(dp1866
I0
(dp1867
g17
Vprep
p1868
ssI8
(dp1869
g17
Vcc
p1870
ssI10
(dp1871
g17
Vconj
p1872
ssI5
(dp1873
g17
Vnsubj
p1874
ssI7
(dp1875
g17
Vdobj
p1876
sssI7
(dp1877
sI8
(dp1878
sI9
(dp1879
sI10
(dp1880
I9
(dp1881
g17
Vnsubj
p1882
ssI11
(dp1883
g17
Vdobj
p1884
sssI11
(dp1885
ssg116
g1854
sg117
(dp1886
I0
(dp1887
I6
g1867
ssI1
(dp1888
I3
g1861
ssI2
(dp1889
I3
g1863
ssI3
(dp1890
I0
g1856
ssI5
(dp1891
I6
g1873
ssI6
(dp1892
sI7
(dp1893
I6
g1875
ssI8
(dp1894
I6
g1869
ssI9
(dp1895
I10
g1881
ssI10
(dp1896
I6
g1871
ssI11
(dp1897
I10
g1883
sssg136
g1854
sbsg137
F-114.86253219842911
sg138
g3
(g139
g5
NtRp1898
(dp1899
g12
(dp1900
I0
(dp1901
g15
g1823
sg17
g1824
ssI1
(dp1902
g15
g1826
sg17
g1827
ssI2
(dp1903
g15
g1829
sg17
g1830
ssI3
(dp1904
g15
g1832
sg17
g1833
ssI5
(dp1905
g15
g1835
sg17
g1836
ssI6
(dp1906
g15
g59
sg17
g1838
ssI7
(dp1907
g15
g1840
sg17
g1841
ssI8
(dp1908
g15
g1843
sg17
g1844
ssI9
(dp1909
g15
g1846
sg17
g1847
ssI10
(dp1910
g15
g59
sg17
g1849
ssI11
(dp1911
g15
g1851
sg17
g1852
sssg63
(dp1912
sg116
(dp1913
I0
(dp1914
I3
(dp1915
g17
g1857
ssI6
(dp1916
g17
g1868
sssI1
(dp1917
I3
(dp1918
g17
g1862
sssI2
(dp1919
I3
(dp1920
g17
g1864
sssI3
(dp1921
I0
g1915
sI1
g1918
sI2
g1920
ssI5
(dp1922
I6
(dp1923
g17
g1874
sssI6
(dp1924
I0
g1916
sI8
(dp1925
g17
g1870
ssI10
(dp1926
g17
g1872
ssI5
g1923
sI7
(dp1927
g17
g1876
sssI7
(dp1928
I6
g1927
ssI8
(dp1929
I6
g1925
ssI9
(dp1930
I10
(dp1931
g17
g1882
sssI10
(dp1932
I9
g1931
sI11
(dp1933
g17
g1884
ssI6
g1926
ssI11
(dp1934
I10
g1933
sssg136
g1913
sbsg195
I0
sg196
(dp1935
I0
g1823
sI1
g1826
sI2
g1829
sI3
g1832
sI4
S','
sI5
g1835
sI6
g59
sI7
g1840
sI8
g1843
sI9
g1846
sI10
g59
sI11
g1851
sI12
S'.'
ssbsI1
g3
(g4
g5
NtRp1936
(dp1937
g8
g3
(g9
g5
NtRp1938
(dp1939
g12
(dp1940
I0
(dp1941
g15
S'Find'
p1942
sg17
S'Find-0'
p1943
ssI1
(dp1944
g15
S'the'
p1945
sg17
S'the-1'
p1946
ssI2
(dp1947
g15
S'perimeter'
p1948
sg17
S'perimeter-2'
p1949
ssI3
(dp1950
g15
S'of'
p1951
sg17
S'of-3'
p1952
ssI4
(dp1953
g15
S'the'
p1954
sg17
S'the-4'
p1955
ssI5
(dp1956
g15
S'rhombus'
p1957
sg17
S'rhombus-5'
p1958
sssg63
(dp1959
sg65
(dp1960
I0
(dp1961
I2
(dp1962
g17
Vdobj
p1963
sssI1
(dp1964
sI2
(dp1965
I1
(dp1966
g17
Vdet
p1967
ssI3
(dp1968
g17
Vprep
p1969
sssI3
(dp1970
I5
(dp1971
g17
Vpobj
p1972
sssI4
(dp1973
sI5
(dp1974
I4
(dp1975
g17
Vdet
p1976
ssssg116
g1960
sg117
(dp1977
I0
(dp1978
sI1
(dp1979
I2
g1966
ssI2
(dp1980
I0
g1962
ssI3
(dp1981
I2
g1968
ssI4
(dp1982
I5
g1975
ssI5
(dp1983
I3
g1971
sssg136
g1960
sbsg137
F-49.154808044433594
sg138
g3
(g139
g5
NtRp1984
(dp1985
g12
(dp1986
I0
(dp1987
g15
g1942
sg17
g1943
ssI1
(dp1988
g15
g1945
sg17
g1946
ssI2
(dp1989
g15
g1948
sg17
g1949
ssI3
(dp1990
g15
g1951
sg17
g1952
ssI4
(dp1991
g15
g1954
sg17
g1955
ssI5
(dp1992
g15
g1957
sg17
g1958
sssg63
(dp1993
sg116
(dp1994
I0
(dp1995
I2
(dp1996
g17
g1963
sssI1
(dp1997
I2
(dp1998
g17
g1967
sssI2
(dp1999
I0
g1996
sI1
g1998
sI3
(dp2000
g17
g1969
sssI3
(dp2001
I2
g2000
sI5
(dp2002
g17
g1972
sssI4
(dp2003
I5
(dp2004
g17
g1976
sssI5
(dp2005
I3
g2002
sI4
g2004
sssg136
g1994
sbsg195
I0
sg196
(dp2006
I0
g1942
sI1
g1945
sI2
g1948
sI3
g1951
sI4
g1954
sI5
g1957
sI6
S'.'
ssbssI17
(dp2007
I0
g3
(g4
g5
NtRp2008
(dp2009
g8
g3
(g9
g5
NtRp2010
(dp2011
g12
(dp2012
I0
(dp2013
g15
S'In'
p2014
sg17
S'In-0'
p2015
ssI1
(dp2016
g15
S'circle'
p2017
sg17
S'circle-1'
p2018
ssI2
(dp2019
g15
S'O'
sg17
S'O-2'
p2020
ssI4
(dp2021
g15
S'secant'
p2022
sg17
S'secant-4'
p2023
ssI5
(dp2024
g15
S'SD'
p2025
sg17
S'SD-5'
p2026
ssI6
(dp2027
g15
S'intersects'
p2028
sg17
S'intersects-6'
p2029
ssI7
(dp2030
g15
S'the'
p2031
sg17
S'the-7'
p2032
ssI8
(dp2033
g15
S'circle'
p2034
sg17
S'circle-8'
p2035
ssI9
(dp2036
g15
S'at'
p2037
sg17
S'at-9'
p2038
ssI10
(dp2039
g15
S'C'
sg17
S'C-10'
p2040
ssI11
(dp2041
g15
S'and'
p2042
sg17
S'and-11'
p2043
ssI12
(dp2044
g15
S'secant'
p2045
sg17
S'secant-12'
p2046
ssI13
(dp2047
g15
S'SB'
p2048
sg17
S'SB-13'
p2049
ssI14
(dp2050
g15
S'intersects'
p2051
sg17
S'intersects-14'
p2052
ssI15
(dp2053
g15
S'the'
p2054
sg17
S'the-15'
p2055
ssI16
(dp2056
g15
S'circle'
p2057
sg17
S'circle-16'
p2058
ssI17
(dp2059
g15
S'at'
p2060
sg17
S'at-17'
p2061
ssI18
(dp2062
g15
S'A'
sg17
S'A-18'
p2063
sssg63
(dp2064
sg65
(dp2065
I0
(dp2066
I2
(dp2067
g17
Vpobj
p2068
sssI1
(dp2069
sI2
(dp2070
I1
(dp2071
g17
Vnn
p2072
sssI4
(dp2073
sI5
(dp2074
I4
(dp2075
g17
Vnn
p2076
sssI6
(dp2077
I0
(dp2078
g17
Vprep
p2079
ssI8
(dp2080
g17
Vdobj
p2081
ssI5
(dp2082
g17
Vnsubj
p2083
ssI17
(dp2084
g17
Vprep
p2085
sssI7
(dp2086
sI8
(dp2087
I9
(dp2088
g17
Vprep
p2089
ssI11
(dp2090
g17
Vcc
p2091
ssI14
(dp2092
g17
Vconj
p2093
ssI7
(dp2094
g17
Vdet
p2095
sssI9
(dp2096
I10
(dp2097
g17
Vpobj
p2098
sssI10
(dp2099
sI11
(dp2100
sI12
(dp2101
sI13
(dp2102
sI14
(dp2103
I16
(dp2104
g17
Vdep
p2105
ssI12
(dp2106
g17
Vamod
p2107
ssI13
(dp2108
g17
Vnn
p2109
sssI15
(dp2110
sI16
(dp2111
I15
(dp2112
g17
Vdet
p2113
sssI17
(dp2114
I18
(dp2115
g17
Vpobj
p2116
sssI18
(dp2117
ssg116
g2065
sg117
(dp2118
I0
(dp2119
I6
g2078
ssI1
(dp2120
I2
g2071
ssI2
(dp2121
I0
g2067
ssI4
(dp2122
I5
g2075
ssI5
(dp2123
I6
g2082
ssI6
(dp2124
sI7
(dp2125
I8
g2094
ssI8
(dp2126
I6
g2080
ssI9
(dp2127
I8
g2088
ssI10
(dp2128
I9
g2097
ssI11
(dp2129
I8
g2090
ssI12
(dp2130
I14
g2106
ssI13
(dp2131
I14
g2108
ssI14
(dp2132
I8
g2092
ssI15
(dp2133
I16
g2112
ssI16
(dp2134
I14
g2104
ssI17
(dp2135
I6
g2084
ssI18
(dp2136
I17
g2115
sssg136
g2065
sbsg137
F-182.27691513299942
sg138
g3
(g139
g5
NtRp2137
(dp2138
g12
(dp2139
I0
(dp2140
g15
g2014
sg17
g2015
ssI1
(dp2141
g15
g2017
sg17
g2018
ssI2
(dp2142
g15
S'O'
sg17
g2020
ssI4
(dp2143
g15
g2022
sg17
g2023
ssI5
(dp2144
g15
g2025
sg17
g2026
ssI6
(dp2145
g15
g2028
sg17
g2029
ssI7
(dp2146
g15
g2031
sg17
g2032
ssI8
(dp2147
g15
g2034
sg17
g2035
ssI9
(dp2148
g15
g2037
sg17
g2038
ssI10
(dp2149
g15
S'C'
sg17
g2040
ssI11
(dp2150
g15
g2042
sg17
g2043
ssI12
(dp2151
g15
g2045
sg17
g2046
ssI13
(dp2152
g15
g2048
sg17
g2049
ssI14
(dp2153
g15
g2051
sg17
g2052
ssI15
(dp2154
g15
g2054
sg17
g2055
ssI16
(dp2155
g15
g2057
sg17
g2058
ssI17
(dp2156
g15
g2060
sg17
g2061
ssI18
(dp2157
g15
S'A'
sg17
g2063
sssg63
(dp2158
sg116
(dp2159
I0
(dp2160
I2
(dp2161
g17
g2068
ssI6
(dp2162
g17
g2079
sssI1
(dp2163
I2
(dp2164
g17
g2072
sssI2
(dp2165
I0
g2161
sI1
g2164
ssI4
(dp2166
I5
(dp2167
g17
g2076
sssI5
(dp2168
I4
g2167
sI6
(dp2169
g17
g2083
sssI6
(dp2170
I0
g2162
sI8
(dp2171
g17
g2081
ssI5
g2169
sI17
(dp2172
g17
g2085
sssI7
(dp2173
I8
(dp2174
g17
g2095
sssI8
(dp2175
I9
(dp2176
g17
g2089
ssI11
(dp2177
g17
g2091
ssI14
(dp2178
g17
g2093
ssI6
g2171
sI7
g2174
ssI9
(dp2179
I8
g2176
sI10
(dp2180
g17
g2098
sssI10
(dp2181
I9
g2180
ssI11
(dp2182
I8
g2177
ssI12
(dp2183
I14
(dp2184
g17
g2107
sssI13
(dp2185
I14
(dp2186
g17
g2109
sssI14
(dp2187
I8
g2178
sI16
(dp2188
g17
g2105
ssI12
g2184
sI13
g2186
ssI15
(dp2189
I16
(dp2190
g17
g2113
sssI16
(dp2191
I14
g2188
sI15
g2190
ssI17
(dp2192
I18
(dp2193
g17
g2116
ssI6
g2172
ssI18
(dp2194
I17
g2193
sssg136
g2159
sbsg195
I0
sg196
(dp2195
I0
g2014
sI1
g2017
sI2
S'O'
sI3
S','
sI4
g2022
sI5
g2025
sI6
g2028
sI7
g2031
sI8
g2034
sI9
g2037
sI10
S'C'
sI11
g2042
sI12
g2045
sI13
g2048
sI14
g2051
sI15
g2054
sI16
g2057
sI17
g2060
sI18
S'A'
sI19
S'.'
ssbsI1
g3
(g4
g5
NtRp2196
(dp2197
g8
g3
(g9
g5
NtRp2198
(dp2199
g12
(dp2200
I0
(dp2201
g15
S'If'
p2202
sg17
S'If-0'
p2203
ssI1
(dp2204
g15
S'SC'
p2205
sg17
S'SC-1'
p2206
ssI2
(dp2207
g15
g59
sg17
S'equals-2'
p2208
ssI3
(dp2209
g15
S'6'
sg17
S'6-3'
p2210
ssI5
(dp2211
g15
S'CD'
p2212
sg17
S'CD-5'
p2213
ssI6
(dp2214
g15
g59
sg17
S'equals-6'
p2215
ssI7
(dp2216
g15
S'8'
sg17
S'8-7'
p2217
ssI9
(dp2218
g15
S'and'
p2219
sg17
S'and-9'
p2220
ssI10
(dp2221
g15
S'SA'
p2222
sg17
S'SA-10'
p2223
ssI11
(dp2224
g15
g59
sg17
S'equals-11'
p2225
ssI12
(dp2226
g15
S'4'
sg17
S'4-12'
p2227
ssI14
(dp2228
g15
S'find'
p2229
sg17
S'find-14'
p2230
ssI15
(dp2231
g15
S'AB'
p2232
sg17
S'AB-15'
p2233
sssg63
(dp2234
sg65
(dp2235
I0
(dp2236
sI1
(dp2237
sI2
(dp2238
I0
(dp2239
g17
Vmark
p2240
ssI1
(dp2241
g17
Vnsubj
p2242
ssI3
(dp2243
g17
Vdobj
p2244
sssI3
(dp2245
sI5
(dp2246
sI6
(dp2247
I9
(dp2248
g17
Vcc
p2249
ssI2
(dp2250
g17
Vadvcl
p2251
ssI11
(dp2252
g17
Vconj
p2253
ssI5
(dp2254
g17
Vnsubj
p2255
ssI7
(dp2256
g17
Vdobj
p2257
sssI7
(dp2258
sI9
(dp2259
sI10
(dp2260
sI11
(dp2261
I10
(dp2262
g17
Vnsubj
p2263
ssI12
(dp2264
g17
Vdobj
p2265
ssI14
(dp2266
g17
Vdep
p2267
sssI12
(dp2268
sI14
(dp2269
I15
(dp2270
g17
Vdobj
p2271
sssI15
(dp2272
ssg116
g2235
sg117
(dp2273
I0
(dp2274
I2
g2239
ssI1
(dp2275
I2
g2241
ssI2
(dp2276
I6
g2250
ssI3
(dp2277
I2
g2243
ssI5
(dp2278
I6
g2254
ssI6
(dp2279
sI7
(dp2280
I6
g2256
ssI9
(dp2281
I6
g2248
ssI10
(dp2282
I11
g2262
ssI11
(dp2283
I6
g2252
ssI12
(dp2284
I11
g2264
ssI14
(dp2285
I11
g2266
ssI15
(dp2286
I14
g2270
sssg136
g2235
sbsg137
F-143.31785446405411
sg138
g3
(g139
g5
NtRp2287
(dp2288
g12
(dp2289
I0
(dp2290
g15
g2202
sg17
g2203
ssI1
(dp2291
g15
g2205
sg17
g2206
ssI2
(dp2292
g15
g59
sg17
g2208
ssI3
(dp2293
g15
S'6'
sg17
g2210
ssI5
(dp2294
g15
g2212
sg17
g2213
ssI6
(dp2295
g15
g59
sg17
g2215
ssI7
(dp2296
g15
S'8'
sg17
g2217
ssI9
(dp2297
g15
g2219
sg17
g2220
ssI10
(dp2298
g15
g2222
sg17
g2223
ssI11
(dp2299
g15
g59
sg17
g2225
ssI12
(dp2300
g15
S'4'
sg17
g2227
ssI14
(dp2301
g15
g2229
sg17
g2230
ssI15
(dp2302
g15
g2232
sg17
g2233
sssg63
(dp2303
sg116
(dp2304
I0
(dp2305
I2
(dp2306
g17
g2240
sssI1
(dp2307
I2
(dp2308
g17
g2242
sssI2
(dp2309
I0
g2306
sI1
g2308
sI3
(dp2310
g17
g2244
ssI6
(dp2311
g17
g2251
sssI3
(dp2312
I2
g2310
ssI5
(dp2313
I6
(dp2314
g17
g2255
sssI6
(dp2315
I9
(dp2316
g17
g2249
ssI2
g2311
sI11
(dp2317
g17
g2253
ssI5
g2314
sI7
(dp2318
g17
g2257
sssI7
(dp2319
I6
g2318
ssI9
(dp2320
I6
g2316
ssI10
(dp2321
I11
(dp2322
g17
g2263
sssI11
(dp2323
I10
g2322
sI12
(dp2324
g17
g2265
ssI14
(dp2325
g17
g2267
ssI6
g2317
ssI12
(dp2326
I11
g2324
ssI14
(dp2327
I11
g2325
sI15
(dp2328
g17
g2271
sssI15
(dp2329
I14
g2328
sssg136
g2304
sbsg195
I0
sg196
(dp2330
I0
g2202
sI1
g2205
sI2
g59
sI3
S'6'
sI4
S','
sI5
g2212
sI6
g59
sI7
S'8'
sI8
S','
sI9
g2219
sI10
g2222
sI11
g59
sI12
S'4'
sI13
S','
sI14
g2229
sI15
g2232
sI16
S'.'
ssbssI19
(dp2331
I0
g3
(g4
g5
NtRp2332
(dp2333
g8
g3
(g9
g5
NtRp2334
(dp2335
g12
(dp2336
I0
(dp2337
g15
S'In'
p2338
sg17
S'In-0'
p2339
ssI1
(dp2340
g15
S'the'
p2341
sg17
S'the-1'
p2342
ssI2
(dp2343
g15
S'accompanying'
p2344
sg17
S'accompanying-2'
p2345
ssI3
(dp2346
g15
S'diagram'
p2347
sg17
S'diagram-3'
p2348
ssI4
(dp2349
g15
S'of'
p2350
sg17
S'of-4'
p2351
ssI5
(dp2352
g15
S'right'
p2353
sg17
S'right-5'
p2354
ssI6
(dp2355
g15
S'triangle'
p2356
sg17
S'triangle-6'
p2357
ssI7
(dp2358
g15
S'ABC'
p2359
sg17
S'ABC-7'
p2360
ssI9
(dp2361
g15
S'altitude'
p2362
sg17
S'altitude-9'
p2363
ssI10
(dp2364
g15
S'AD'
p2365
sg17
S'AD-10'
p2366
ssI11
(dp2367
g15
S'divides'
p2368
sg17
S'divides-11'
p2369
ssI12
(dp2370
g15
S'hypotenuse'
p2371
sg17
S'hypotenuse-12'
p2372
ssI13
(dp2373
g15
S'BC'
p2374
sg17
S'BC-13'
p2375
ssI14
(dp2376
g15
S'into'
p2377
sg17
S'into-14'
p2378
ssI15
(dp2379
g15
S'segments'
p2380
sg17
S'segments-15'
p2381
ssI16
(dp2382
g15
S'with'
p2383
sg17
S'with-16'
p2384
ssI17
(dp2385
g15
S'lenghts'
p2386
sg17
S'lenghts-17'
p2387
ssI18
(dp2388
g15
S'of'
p2389
sg17
S'of-18'
p2390
ssI19
(dp2391
g15
S'4'
sg17
S'4-19'
p2392
ssI20
(dp2393
g15
S'and'
p2394
sg17
S'and-20'
p2395
ssI21
(dp2396
g15
S'5'
sg17
S'5-21'
p2397
sssg63
(dp2398
sg65
(dp2399
I0
(dp2400
I3
(dp2401
g17
Vpobj
p2402
sssI1
(dp2403
sI2
(dp2404
sI3
(dp2405
I1
(dp2406
g17
Vdet
p2407
ssI2
(dp2408
g17
Vamod
p2409
ssI4
(dp2410
g17
Vprep
p2411
sssI4
(dp2412
I7
(dp2413
g17
Vpobj
p2414
sssI5
(dp2415
sI6
(dp2416
sI7
(dp2417
I5
(dp2418
g17
Vnn
p2419
ssI6
(dp2420
g17
Vnn
p2421
sssI9
(dp2422
sI10
(dp2423
I9
(dp2424
g17
Vnn
p2425
sssI11
(dp2426
I0
(dp2427
g17
Vprep
p2428
ssI10
(dp2429
g17
Vnsubj
p2430
ssI13
(dp2431
g17
Vdobj
p2432
ssI14
(dp2433
g17
Vprep
p2434
sssI12
(dp2435
sI13
(dp2436
I12
(dp2437
g17
Vamod
p2438
sssI14
(dp2439
I15
(dp2440
g17
Vpobj
p2441
sssI15
(dp2442
I16
(dp2443
g17
Vprep
p2444
sssI16
(dp2445
I17
(dp2446
g17
Vpobj
p2447
sssI17
(dp2448
I18
(dp2449
g17
Vprep
p2450
sssI18
(dp2451
I19
(dp2452
g17
Vpobj
p2453
sssI19
(dp2454
I20
(dp2455
g17
Vcc
p2456
ssI21
(dp2457
g17
Vconj
p2458
sssI20
(dp2459
sI21
(dp2460
ssg116
g2399
sg117
(dp2461
I0
(dp2462
I11
g2427
ssI1
(dp2463
I3
g2406
ssI2
(dp2464
I3
g2408
ssI3
(dp2465
I0
g2401
ssI4
(dp2466
I3
g2410
ssI5
(dp2467
I7
g2418
ssI6
(dp2468
I7
g2420
ssI7
(dp2469
I4
g2413
ssI9
(dp2470
I10
g2424
ssI10
(dp2471
I11
g2429
ssI11
(dp2472
sI12
(dp2473
I13
g2437
ssI13
(dp2474
I11
g2431
ssI14
(dp2475
I11
g2433
ssI15
(dp2476
I14
g2440
ssI16
(dp2477
I15
g2443
ssI17
(dp2478
I16
g2446
ssI18
(dp2479
I17
g2449
ssI19
(dp2480
I18
g2452
ssI20
(dp2481
I19
g2455
ssI21
(dp2482
I19
g2457
sssg136
g2399
sbsg137
F-198.87736374139786
sg138
g3
(g139
g5
NtRp2483
(dp2484
g12
(dp2485
I0
(dp2486
g15
g2338
sg17
g2339
ssI1
(dp2487
g15
g2341
sg17
g2342
ssI2
(dp2488
g15
g2344
sg17
g2345
ssI3
(dp2489
g15
g2347
sg17
g2348
ssI4
(dp2490
g15
g2350
sg17
g2351
ssI5
(dp2491
g15
g2353
sg17
g2354
ssI6
(dp2492
g15
g2356
sg17
g2357
ssI7
(dp2493
g15
g2359
sg17
g2360
ssI9
(dp2494
g15
g2362
sg17
g2363
ssI10
(dp2495
g15
g2365
sg17
g2366
ssI11
(dp2496
g15
g2368
sg17
g2369
ssI12
(dp2497
g15
g2371
sg17
g2372
ssI13
(dp2498
g15
g2374
sg17
g2375
ssI14
(dp2499
g15
g2377
sg17
g2378
ssI15
(dp2500
g15
g2380
sg17
g2381
ssI16
(dp2501
g15
g2383
sg17
g2384
ssI17
(dp2502
g15
g2386
sg17
g2387
ssI18
(dp2503
g15
g2389
sg17
g2390
ssI19
(dp2504
g15
S'4'
sg17
g2392
ssI20
(dp2505
g15
g2394
sg17
g2395
ssI21
(dp2506
g15
S'5'
sg17
g2397
sssg63
(dp2507
sg116
(dp2508
I0
(dp2509
I11
(dp2510
g17
g2428
ssI3
(dp2511
g17
g2402
sssI1
(dp2512
I3
(dp2513
g17
g2407
sssI2
(dp2514
I3
(dp2515
g17
g2409
sssI3
(dp2516
I0
g2511
sI1
g2513
sI2
g2515
sI4
(dp2517
g17
g2411
sssI4
(dp2518
I3
g2517
sI7
(dp2519
g17
g2414
sssI5
(dp2520
I7
(dp2521
g17
g2419
sssI6
(dp2522
I7
(dp2523
g17
g2421
sssI7
(dp2524
I4
g2519
sI5
g2521
sI6
g2523
ssI9
(dp2525
I10
(dp2526
g17
g2425
sssI10
(dp2527
I9
g2526
sI11
(dp2528
g17
g2430
sssI11
(dp2529
I0
g2510
sI10
g2528
sI13
(dp2530
g17
g2432
ssI14
(dp2531
g17
g2434
sssI12
(dp2532
I13
(dp2533
g17
g2438
sssI13
(dp2534
I11
g2530
sI12
g2533
ssI14
(dp2535
I11
g2531
sI15
(dp2536
g17
g2441
sssI15
(dp2537
I16
(dp2538
g17
g2444
ssI14
g2536
ssI16
(dp2539
I17
(dp2540
g17
g2447
ssI15
g2538
ssI17
(dp2541
I16
g2540
sI18
(dp2542
g17
g2450
sssI18
(dp2543
I17
g2542
sI19
(dp2544
g17
g2453
sssI19
(dp2545
I18
g2544
sI20
(dp2546
g17
g2456
ssI21
(dp2547
g17
g2458
sssI20
(dp2548
I19
g2546
ssI21
(dp2549
I19
g2547
sssg136
g2508
sbsg195
I0
sg196
(dp2550
I0
g2338
sI1
g2341
sI2
g2344
sI3
g2347
sI4
g2350
sI5
g2353
sI6
g2356
sI7
g2359
sI8
S','
sI9
g2362
sI10
g2365
sI11
g2368
sI12
g2371
sI13
g2374
sI14
g2377
sI15
g2380
sI16
g2383
sI17
g2386
sI18
g2389
sI19
S'4'
sI20
g2394
sI21
S'5'
sI22
S'.'
ssbsI1
g3
(g4
g5
NtRp2551
(dp2552
g8
g3
(g9
g5
NtRp2553
(dp2554
g12
(dp2555
I0
(dp2556
g15
S'Find'
p2557
sg17
S'Find-0'
p2558
ssI1
(dp2559
g15
S'the'
p2560
sg17
S'the-1'
p2561
ssI2
(dp2562
g15
S'length'
p2563
sg17
S'length-2'
p2564
ssI3
(dp2565
g15
S'of'
p2566
sg17
S'of-3'
p2567
ssI4
(dp2568
g15
S'leg'
p2569
sg17
S'leg-4'
p2570
ssI5
(dp2571
g15
S'AB'
p2572
sg17
S'AB-5'
p2573
sssg63
(dp2574
sg65
(dp2575
I0
(dp2576
I2
(dp2577
g17
Vdobj
p2578
sssI1
(dp2579
sI2
(dp2580
I1
(dp2581
g17
Vdet
p2582
ssI3
(dp2583
g17
Vprep
p2584
sssI3
(dp2585
I5
(dp2586
g17
Vpobj
p2587
sssI4
(dp2588
sI5
(dp2589
I4
(dp2590
g17
Vnn
p2591
ssssg116
g2575
sg117
(dp2592
I0
(dp2593
sI1
(dp2594
I2
g2581
ssI2
(dp2595
I0
g2577
ssI3
(dp2596
I2
g2583
ssI4
(dp2597
I5
g2590
ssI5
(dp2598
I3
g2586
sssg136
g2575
sbsg137
F-56.500423431396484
sg138
g3
(g139
g5
NtRp2599
(dp2600
g12
(dp2601
I0
(dp2602
g15
g2557
sg17
g2558
ssI1
(dp2603
g15
g2560
sg17
g2561
ssI2
(dp2604
g15
g2563
sg17
g2564
ssI3
(dp2605
g15
g2566
sg17
g2567
ssI4
(dp2606
g15
g2569
sg17
g2570
ssI5
(dp2607
g15
g2572
sg17
g2573
sssg63
(dp2608
sg116
(dp2609
I0
(dp2610
I2
(dp2611
g17
g2578
sssI1
(dp2612
I2
(dp2613
g17
g2582
sssI2
(dp2614
I0
g2611
sI1
g2613
sI3
(dp2615
g17
g2584
sssI3
(dp2616
I2
g2615
sI5
(dp2617
g17
g2587
sssI4
(dp2618
I5
(dp2619
g17
g2591
sssI5
(dp2620
I3
g2617
sI4
g2619
sssg136
g2609
sbsg195
I0
sg196
(dp2621
I0
g2557
sI1
g2560
sI2
g2563
sI3
g2566
sI4
g2569
sI5
g2572
sI6
S'.'
ssbssI20
(dp2622
I0
g3
(g4
g5
NtRp2623
(dp2624
g8
g3
(g9
g5
NtRp2625
(dp2626
g12
(dp2627
I0
(dp2628
g15
S'In'
p2629
sg17
S'In-0'
p2630
ssI1
(dp2631
g15
S'the'
p2632
sg17
S'the-1'
p2633
ssI2
(dp2634
g15
S'accompanying'
p2635
sg17
S'accompanying-2'
p2636
ssI3
(dp2637
g15
S'diagram'
p2638
sg17
S'diagram-3'
p2639
ssI5
(dp2640
g15
S'line'
p2641
sg17
S'line-5'
p2642
ssI6
(dp2643
g15
S'AB'
p2644
sg17
S'AB-6'
p2645
ssI7
(dp2646
g15
S'is'
p2647
sg17
S'is-7'
p2648
ssI8
(dp2649
g15
S'parallel'
p2650
sg17
S'parallel-8'
p2651
ssI9
(dp2652
g15
S'with'
p2653
sg17
S'with-9'
p2654
ssI10
(dp2655
g15
S'line'
p2656
sg17
S'line-10'
p2657
ssI11
(dp2658
g15
S'CD'
p2659
sg17
S'CD-11'
p2660
ssI12
(dp2661
g15
S'and'
p2662
sg17
S'and-12'
p2663
ssI13
(dp2664
g15
S'line'
p2665
sg17
S'line-13'
p2666
ssI14
(dp2667
g15
S'FHE'
p2668
sg17
S'FHE-14'
p2669
ssI16
(dp2670
g15
S'angle'
p2671
sg17
S'angle-16'
p2672
ssI17
(dp2673
g15
S'AEF'
p2674
sg17
S'AEF-17'
p2675
ssI18
(dp2676
g15
g59
sg17
S'equals-18'
p2677
ssI19
(dp2678
g15
S'40'
p2679
sg17
S'40-19'
p2680
ssI21
(dp2681
g15
S'and'
p2682
sg17
S'and-21'
p2683
ssI22
(dp2684
g15
S'angle'
p2685
sg17
S'angle-22'
p2686
ssI23
(dp2687
g15
S'FHG'
p2688
sg17
S'FHG-23'
p2689
ssI24
(dp2690
g15
g59
sg17
S'equals-24'
p2691
ssI25
(dp2692
g15
S'60'
p2693
sg17
S'60-25'
p2694
sssg63
(dp2695
sg65
(dp2696
I0
(dp2697
I3
(dp2698
g17
Vpobj
p2699
sssI1
(dp2700
sI2
(dp2701
sI3
(dp2702
I1
(dp2703
g17
Vdet
p2704
ssI2
(dp2705
g17
Vamod
p2706
sssI5
(dp2707
sI6
(dp2708
I5
(dp2709
g17
Vnn
p2710
sssI7
(dp2711
I8
(dp2712
g17
Vadvmod
p2713
ssI9
(dp2714
g17
Vprep
p2715
ssI6
(dp2716
g17
Vnsubj
p2717
sssI8
(dp2718
sI9
(dp2719
I11
(dp2720
g17
Vpobj
p2721
sssI10
(dp2722
sI11
(dp2723
I10
(dp2724
g17
Vnn
p2725
ssI12
(dp2726
g17
Vcc
p2727
ssI14
(dp2728
g17
Vconj
p2729
sssI12
(dp2730
sI13
(dp2731
sI14
(dp2732
I13
(dp2733
g17
Vnn
p2734
sssI16
(dp2735
sI17
(dp2736
I16
(dp2737
g17
Vnn
p2738
sssI18
(dp2739
I0
(dp2740
g17
Vprep
p2741
ssI7
(dp2742
g17
Vdep
p2743
ssI17
(dp2744
g17
Vnsubj
p2745
ssI19
(dp2746
g17
Vdobj
p2747
ssI21
(dp2748
g17
Vcc
p2749
ssI24
(dp2750
g17
Vconj
p2751
sssI19
(dp2752
sI21
(dp2753
sI22
(dp2754
sI23
(dp2755
I22
(dp2756
g17
Vnn
p2757
sssI24
(dp2758
I25
(dp2759
g17
Vdobj
p2760
ssI23
(dp2761
g17
Vnsubj
p2762
sssI25
(dp2763
ssg116
g2696
sg117
(dp2764
I0
(dp2765
I18
g2740
ssI1
(dp2766
I3
g2703
ssI2
(dp2767
I3
g2705
ssI3
(dp2768
I0
g2698
ssI5
(dp2769
I6
g2709
ssI6
(dp2770
I7
g2716
ssI7
(dp2771
I18
g2742
ssI8
(dp2772
I7
g2712
ssI9
(dp2773
I7
g2714
ssI10
(dp2774
I11
g2724
ssI11
(dp2775
I9
g2720
ssI12
(dp2776
I11
g2726
ssI13
(dp2777
I14
g2733
ssI14
(dp2778
I11
g2728
ssI16
(dp2779
I17
g2737
ssI17
(dp2780
I18
g2744
ssI18
(dp2781
sI19
(dp2782
I18
g2746
ssI21
(dp2783
I18
g2748
ssI22
(dp2784
I23
g2756
ssI23
(dp2785
I24
g2761
ssI24
(dp2786
I18
g2750
ssI25
(dp2787
I24
g2759
sssg136
g2696
sbsg137
F-233.79521042108536
sg138
g3
(g139
g5
NtRp2788
(dp2789
g12
(dp2790
I0
(dp2791
g15
g2629
sg17
g2630
ssI1
(dp2792
g15
g2632
sg17
g2633
ssI2
(dp2793
g15
g2635
sg17
g2636
ssI3
(dp2794
g15
g2638
sg17
g2639
ssI5
(dp2795
g15
g2641
sg17
g2642
ssI6
(dp2796
g15
g2644
sg17
g2645
ssI7
(dp2797
g15
g2647
sg17
g2648
ssI8
(dp2798
g15
g2650
sg17
g2651
ssI9
(dp2799
g15
g2653
sg17
g2654
ssI10
(dp2800
g15
g2656
sg17
g2657
ssI11
(dp2801
g15
g2659
sg17
g2660
ssI12
(dp2802
g15
g2662
sg17
g2663
ssI13
(dp2803
g15
g2665
sg17
g2666
ssI14
(dp2804
g15
g2668
sg17
g2669
ssI16
(dp2805
g15
g2671
sg17
g2672
ssI17
(dp2806
g15
g2674
sg17
g2675
ssI18
(dp2807
g15
g59
sg17
g2677
ssI19
(dp2808
g15
g2679
sg17
g2680
ssI21
(dp2809
g15
g2682
sg17
g2683
ssI22
(dp2810
g15
g2685
sg17
g2686
ssI23
(dp2811
g15
g2688
sg17
g2689
ssI24
(dp2812
g15
g59
sg17
g2691
ssI25
(dp2813
g15
g2693
sg17
g2694
sssg63
(dp2814
sg116
(dp2815
I0
(dp2816
I18
(dp2817
g17
g2741
ssI3
(dp2818
g17
g2699
sssI1
(dp2819
I3
(dp2820
g17
g2704
sssI2
(dp2821
I3
(dp2822
g17
g2706
sssI3
(dp2823
I0
g2818
sI1
g2820
sI2
g2822
ssI5
(dp2824
I6
(dp2825
g17
g2710
sssI6
(dp2826
I5
g2825
sI7
(dp2827
g17
g2717
sssI7
(dp2828
I8
(dp2829
g17
g2713
ssI9
(dp2830
g17
g2715
ssI18
(dp2831
g17
g2743
ssI6
g2827
ssI8
(dp2832
I7
g2829
ssI9
(dp2833
I11
(dp2834
g17
g2721
ssI7
g2830
ssI10
(dp2835
I11
(dp2836
g17
g2725
sssI11
(dp2837
I9
g2834
sI10
g2836
sI12
(dp2838
g17
g2727
ssI14
(dp2839
g17
g2729
sssI12
(dp2840
I11
g2838
ssI13
(dp2841
I14
(dp2842
g17
g2734
sssI14
(dp2843
I11
g2839
sI13
g2842
ssI16
(dp2844
I17
(dp2845
g17
g2738
sssI17
(dp2846
I16
g2845
sI18
(dp2847
g17
g2745
sssI18
(dp2848
I0
g2817
sI7
g2831
sI17
g2847
sI19
(dp2849
g17
g2747
ssI21
(dp2850
g17
g2749
ssI24
(dp2851
g17
g2751
sssI19
(dp2852
I18
g2849
ssI21
(dp2853
I18
g2850
ssI22
(dp2854
I23
(dp2855
g17
g2757
sssI23
(dp2856
I24
(dp2857
g17
g2762
ssI22
g2855
ssI24
(dp2858
I25
(dp2859
g17
g2760
ssI18
g2851
sI23
g2857
ssI25
(dp2860
I24
g2859
sssg136
g2815
sbsg195
I0
sg196
(dp2861
I0
g2629
sI1
g2632
sI2
g2635
sI3
g2638
sI4
S','
sI5
g2641
sI6
g2644
sI7
g2647
sI8
g2650
sI9
g2653
sI10
g2656
sI11
g2659
sI12
g2662
sI13
g2665
sI14
g2668
sI15
S','
sI16
g2671
sI17
g2674
sI18
g59
sI19
g2679
sI20
S','
sI21
g2682
sI22
g2685
sI23
g2688
sI24
g59
sI25
g2693
sI26
S'.'
ssbsI1
g3
(g4
g5
NtRp2862
(dp2863
g8
g3
(g9
g5
NtRp2864
(dp2865
g12
(dp2866
I0
(dp2867
g15
S'Find'
p2868
sg17
S'Find-0'
p2869
ssI1
(dp2870
g15
S'angle'
p2871
sg17
S'angle-1'
p2872
ssI2
(dp2873
g15
S'HGD'
p2874
sg17
S'HGD-2'
p2875
sssg63
(dp2876
sg65
(dp2877
I0
(dp2878
I2
(dp2879
g17
Vdobj
p2880
sssI1
(dp2881
sI2
(dp2882
I1
(dp2883
g17
Vnn
p2884
ssssg116
g2877
sg117
(dp2885
I0
(dp2886
sI1
(dp2887
I2
g2883
ssI2
(dp2888
I0
g2879
sssg136
g2877
sbsg137
F-46.944293975830078
sg138
g3
(g139
g5
NtRp2889
(dp2890
g12
(dp2891
I0
(dp2892
g15
g2868
sg17
g2869
ssI1
(dp2893
g15
g2871
sg17
g2872
ssI2
(dp2894
g15
g2874
sg17
g2875
sssg63
(dp2895
sg116
(dp2896
I0
(dp2897
I2
(dp2898
g17
g2880
sssI1
(dp2899
I2
(dp2900
g17
g2884
sssI2
(dp2901
I0
g2898
sI1
g2900
sssg136
g2896
sbsg195
I0
sg196
(dp2902
I0
g2868
sI1
g2871
sI2
g2874
sI3
S'.'
ssbssI21
(dp2903
I0
g3
(g4
g5
NtRp2904
(dp2905
g8
g3
(g9
g5
NtRp2906
(dp2907
g12
(dp2908
I0
(dp2909
g15
S'In'
p2910
sg17
S'In-0'
p2911
ssI1
(dp2912
g15
S'the'
p2913
sg17
S'the-1'
p2914
ssI2
(dp2915
g15
S'accompanying'
p2916
sg17
S'accompanying-2'
p2917
ssI3
(dp2918
g15
S'diagram'
p2919
sg17
S'diagram-3'
p2920
ssI5
(dp2921
g15
S'line'
p2922
sg17
S'line-5'
p2923
ssI6
(dp2924
g15
S'PQ'
p2925
sg17
S'PQ-6'
p2926
ssI7
(dp2927
g15
S'and'
p2928
sg17
S'and-7'
p2929
ssI8
(dp2930
g15
S'line'
p2931
sg17
S'line-8'
p2932
ssI9
(dp2933
g15
S'PS'
p2934
sg17
S'PS-9'
p2935
ssI10
(dp2936
g15
S'are'
p2937
sg17
S'are-10'
p2938
ssI11
(dp2939
g15
S'tangents'
p2940
sg17
S'tangents-11'
p2941
ssI12
(dp2942
g15
S'drawn'
p2943
sg17
S'drawn-12'
p2944
ssI13
(dp2945
g15
S'to'
p2946
sg17
S'to-13'
p2947
ssI14
(dp2948
g15
S'circle'
p2949
sg17
S'circle-14'
p2950
ssI15
(dp2951
g15
S'O'
sg17
S'O-15'
p2952
ssI17
(dp2953
g15
S'and'
p2954
sg17
S'and-17'
p2955
ssI18
(dp2956
g15
S'chord'
p2957
sg17
S'chord-18'
p2958
ssI19
(dp2959
g15
S'QS'
p2960
sg17
S'QS-19'
p2961
ssI20
(dp2962
g15
S'is'
p2963
sg17
S'is-20'
p2964
ssI21
(dp2965
g15
S'drawn'
p2966
sg17
S'drawn-21'
p2967
sssg63
(dp2968
sg65
(dp2969
I0
(dp2970
I3
(dp2971
g17
Vpobj
p2972
sssI1
(dp2973
sI2
(dp2974
sI3
(dp2975
I1
(dp2976
g17
Vdet
p2977
ssI2
(dp2978
g17
Vamod
p2979
sssI5
(dp2980
sI6
(dp2981
I9
(dp2982
g17
Vconj
p2983
ssI5
(dp2984
g17
Vnn
p2985
ssI7
(dp2986
g17
Vcc
p2987
sssI7
(dp2988
sI8
(dp2989
sI9
(dp2990
I8
(dp2991
g17
Vnn
p2992
sssI10
(dp2993
sI11
(dp2994
sI12
(dp2995
I0
(dp2996
g17
Vprep
p2997
ssI6
(dp2998
g17
Vnsubjpass
p2999
ssI10
(dp3000
g17
Vauxpass
p3001
ssI11
(dp3002
g17
Vadvmod
p3003
ssI13
(dp3004
g17
Vprep
p3005
ssI17
(dp3006
g17
Vcc
p3007
ssI21
(dp3008
g17
Vconj
p3009
sssI13
(dp3010
I15
(dp3011
g17
Vpobj
p3012
sssI14
(dp3013
sI15
(dp3014
I14
(dp3015
g17
Vnn
p3016
sssI17
(dp3017
sI18
(dp3018
sI19
(dp3019
I18
(dp3020
g17
Vnn
p3021
sssI20
(dp3022
sI21
(dp3023
I19
(dp3024
g17
Vnsubjpass
p3025
ssI20
(dp3026
g17
Vauxpass
p3027
ssssg116
g2969
sg117
(dp3028
I0
(dp3029
I12
g2996
ssI1
(dp3030
I3
g2976
ssI2
(dp3031
I3
g2978
ssI3
(dp3032
I0
g2971
ssI5
(dp3033
I6
g2984
ssI6
(dp3034
I12
g2998
ssI7
(dp3035
I6
g2986
ssI8
(dp3036
I9
g2991
ssI9
(dp3037
I6
g2982
ssI10
(dp3038
I12
g3000
ssI11
(dp3039
I12
g3002
ssI12
(dp3040
sI13
(dp3041
I12
g3004
ssI14
(dp3042
I15
g3015
ssI15
(dp3043
I13
g3011
ssI17
(dp3044
I12
g3006
ssI18
(dp3045
I19
g3020
ssI19
(dp3046
I21
g3024
ssI20
(dp3047
I21
g3026
ssI21
(dp3048
I12
g3008
sssg136
g2969
sbsg137
F-191.95641952753067
sg138
g3
(g139
g5
NtRp3049
(dp3050
g12
(dp3051
I0
(dp3052
g15
g2910
sg17
g2911
ssI1
(dp3053
g15
g2913
sg17
g2914
ssI2
(dp3054
g15
g2916
sg17
g2917
ssI3
(dp3055
g15
g2919
sg17
g2920
ssI5
(dp3056
g15
g2922
sg17
g2923
ssI6
(dp3057
g15
g2925
sg17
g2926
ssI7
(dp3058
g15
g2928
sg17
g2929
ssI8
(dp3059
g15
g2931
sg17
g2932
ssI9
(dp3060
g15
g2934
sg17
g2935
ssI10
(dp3061
g15
g2937
sg17
g2938
ssI11
(dp3062
g15
g2940
sg17
g2941
ssI12
(dp3063
g15
g2943
sg17
g2944
ssI13
(dp3064
g15
g2946
sg17
g2947
ssI14
(dp3065
g15
g2949
sg17
g2950
ssI15
(dp3066
g15
S'O'
sg17
g2952
ssI17
(dp3067
g15
g2954
sg17
g2955
ssI18
(dp3068
g15
g2957
sg17
g2958
ssI19
(dp3069
g15
g2960
sg17
g2961
ssI20
(dp3070
g15
g2963
sg17
g2964
ssI21
(dp3071
g15
g2966
sg17
g2967
sssg63
(dp3072
sg116
(dp3073
I0
(dp3074
I3
(dp3075
g17
g2972
ssI12
(dp3076
g17
g2997
sssI1
(dp3077
I3
(dp3078
g17
g2977
sssI2
(dp3079
I3
(dp3080
g17
g2979
sssI3
(dp3081
I0
g3075
sI1
g3078
sI2
g3080
ssI5
(dp3082
I6
(dp3083
g17
g2985
sssI6
(dp3084
I9
(dp3085
g17
g2983
ssI12
(dp3086
g17
g2999
ssI5
g3083
sI7
(dp3087
g17
g2987
sssI7
(dp3088
I6
g3087
ssI8
(dp3089
I9
(dp3090
g17
g2992
sssI9
(dp3091
I8
g3090
sI6
g3085
ssI10
(dp3092
I12
(dp3093
g17
g3001
sssI11
(dp3094
I12
(dp3095
g17
g3003
sssI12
(dp3096
I0
g3076
sI6
g3086
sI10
g3093
sI11
g3095
sI13
(dp3097
g17
g3005
ssI17
(dp3098
g17
g3007
ssI21
(dp3099
g17
g3009
sssI13
(dp3100
I12
g3097
sI15
(dp3101
g17
g3012
sssI14
(dp3102
I15
(dp3103
g17
g3016
sssI15
(dp3104
I13
g3101
sI14
g3103
ssI17
(dp3105
I12
g3098
ssI18
(dp3106
I19
(dp3107
g17
g3021
sssI19
(dp3108
I18
g3107
sI21
(dp3109
g17
g3025
sssI20
(dp3110
I21
(dp3111
g17
g3027
sssI21
(dp3112
I20
g3111
sI19
g3109
sI12
g3099
sssg136
g3073
sbsg195
I0
sg196
(dp3113
I0
g2910
sI1
g2913
sI2
g2916
sI3
g2919
sI4
S','
sI5
g2922
sI6
g2925
sI7
g2928
sI8
g2931
sI9
g2934
sI10
g2937
sI11
g2940
sI12
g2943
sI13
g2946
sI14
g2949
sI15
S'O'
sI16
S','
sI17
g2954
sI18
g2957
sI19
g2960
sI20
g2963
sI21
g2966
sI22
S'.'
ssbsI1
g3
(g4
g5
NtRp3114
(dp3115
g8
g3
(g9
g5
NtRp3116
(dp3117
g12
(dp3118
I0
(dp3119
g15
S'If'
p3120
sg17
S'If-0'
p3121
ssI1
(dp3122
g15
S'angle'
p3123
sg17
S'angle-1'
p3124
ssI2
(dp3125
g15
S'P'
sg17
S'P-2'
p3126
ssI3
(dp3127
g15
g59
sg17
S'equals-3'
p3128
ssI4
(dp3129
g15
S'40'
p3130
sg17
S'40-4'
p3131
ssI6
(dp3132
g15
S'what'
p3133
sg17
S'what-6'
p3134
ssI7
(dp3135
g15
S'is'
p3136
sg17
S'is-7'
p3137
ssI8
(dp3138
g15
S'angle'
p3139
sg17
S'angle-8'
p3140
ssI9
(dp3141
g15
S'PQS'
p3142
sg17
S'PQS-9'
p3143
sssg63
(dp3144
sg65
(dp3145
I0
(dp3146
sI1
(dp3147
sI2
(dp3148
I1
(dp3149
g17
Vnn
p3150
sssI3
(dp3151
I0
(dp3152
g17
Vmark
p3153
ssI2
(dp3154
g17
Vnsubj
p3155
ssI4
(dp3156
g17
Vdobj
p3157
sssI4
(dp3158
sI6
(dp3159
I9
(dp3160
g17
Vnsubj
p3161
ssI3
(dp3162
g17
Vdep
p3163
ssI7
(dp3164
g17
Vcop
p3165
sssI7
(dp3166
sI8
(dp3167
sI9
(dp3168
I8
(dp3169
g17
Vnn
p3170
ssssg116
g3145
sg117
(dp3171
I0
(dp3172
I3
g3152
ssI1
(dp3173
I2
g3149
ssI2
(dp3174
I3
g3154
ssI3
(dp3175
I6
g3162
ssI4
(dp3176
I3
g3156
ssI6
(dp3177
sI7
(dp3178
I6
g3164
ssI8
(dp3179
I9
g3169
ssI9
(dp3180
I6
g3160
sssg136
g3145
sbsg137
F-98.004894733428955
sg138
g3
(g139
g5
NtRp3181
(dp3182
g12
(dp3183
I0
(dp3184
g15
g3120
sg17
g3121
ssI1
(dp3185
g15
g3123
sg17
g3124
ssI2
(dp3186
g15
S'P'
sg17
g3126
ssI3
(dp3187
g15
g59
sg17
g3128
ssI4
(dp3188
g15
g3130
sg17
g3131
ssI6
(dp3189
g15
g3133
sg17
g3134
ssI7
(dp3190
g15
g3136
sg17
g3137
ssI8
(dp3191
g15
g3139
sg17
g3140
ssI9
(dp3192
g15
g3142
sg17
g3143
sssg63
(dp3193
sg116
(dp3194
I0
(dp3195
I3
(dp3196
g17
g3153
sssI1
(dp3197
I2
(dp3198
g17
g3150
sssI2
(dp3199
I1
g3198
sI3
(dp3200
g17
g3155
sssI3
(dp3201
I0
g3196
sI2
g3200
sI4
(dp3202
g17
g3157
ssI6
(dp3203
g17
g3163
sssI4
(dp3204
I3
g3202
ssI6
(dp3205
I9
(dp3206
g17
g3161
ssI3
g3203
sI7
(dp3207
g17
g3165
sssI7
(dp3208
I6
g3207
ssI8
(dp3209
I9
(dp3210
g17
g3170
sssI9
(dp3211
I8
g3210
sI6
g3206
sssg136
g3194
sbsg195
I0
sg196
(dp3212
I0
g3120
sI1
g3123
sI2
S'P'
sI3
g59
sI4
g3130
sI5
S','
sI6
g3133
sI7
g3136
sI8
g3139
sI9
g3142
sI10
S'?'
ssbssI25
(dp3213
I0
g3
(g4
g5
NtRp3214
(dp3215
g8
g3
(g9
g5
NtRp3216
(dp3217
g12
(dp3218
I0
(dp3219
g15
S'In'
p3220
sg17
S'In-0'
p3221
ssI1
(dp3222
g15
S'the'
p3223
sg17
S'the-1'
p3224
ssI2
(dp3225
g15
S'accompanying'
p3226
sg17
S'accompanying-2'
p3227
ssI3
(dp3228
g15
S'diagram'
p3229
sg17
S'diagram-3'
p3230
ssI5
(dp3231
g15
S'ABC'
p3232
sg17
S'ABC-5'
p3233
ssI6
(dp3234
g15
S'is'
p3235
sg17
S'is-6'
p3236
ssI7
(dp3237
g15
S'an'
p3238
sg17
S'an-7'
p3239
ssI8
(dp3240
g15
S'equilateral'
p3241
sg17
S'equilateral-8'
p3242
ssI9
(dp3243
g15
S'triangle'
p3244
sg17
S'triangle-9'
p3245
ssI10
(dp3246
g15
S'with'
p3247
sg17
S'with-10'
p3248
ssI11
(dp3249
g15
S'a'
sg17
S'a-11'
p3250
ssI12
(dp3251
g15
S'perimeter'
p3252
sg17
S'perimeter-12'
p3253
ssI13
(dp3254
g15
S'of'
p3255
sg17
S'of-13'
p3256
ssI14
(dp3257
g15
S'30'
p3258
sg17
S'30-14'
p3259
sssg63
(dp3260
sg65
(dp3261
I0
(dp3262
I3
(dp3263
g17
Vpobj
p3264
sssI1
(dp3265
sI2
(dp3266
sI3
(dp3267
I1
(dp3268
g17
Vdet
p3269
ssI2
(dp3270
g17
Vamod
p3271
sssI5
(dp3272
sI6
(dp3273
sI7
(dp3274
sI8
(dp3275
sI9
(dp3276
I0
(dp3277
g17
Vprep
p3278
ssI5
(dp3279
g17
Vnsubj
p3280
ssI6
(dp3281
g17
Vcop
p3282
ssI7
(dp3283
g17
Vdet
p3284
ssI8
(dp3285
g17
Vamod
p3286
ssI10
(dp3287
g17
Vprep
p3288
sssI10
(dp3289
I12
(dp3290
g17
Vpobj
p3291
sssI11
(dp3292
sI12
(dp3293
I11
(dp3294
g17
Vdet
p3295
ssI13
(dp3296
g17
Vprep
p3297
sssI13
(dp3298
I14
(dp3299
g17
Vpobj
p3300
sssI14
(dp3301
ssg116
g3261
sg117
(dp3302
I0
(dp3303
I9
g3277
ssI1
(dp3304
I3
g3268
ssI2
(dp3305
I3
g3270
ssI3
(dp3306
I0
g3263
ssI5
(dp3307
I9
g3279
ssI6
(dp3308
I9
g3281
ssI7
(dp3309
I9
g3283
ssI8
(dp3310
I9
g3285
ssI9
(dp3311
sI10
(dp3312
I9
g3287
ssI11
(dp3313
I12
g3294
ssI12
(dp3314
I10
g3290
ssI13
(dp3315
I12
g3296
ssI14
(dp3316
I13
g3299
sssg136
g3261
sbsg137
F-105.51335006952286
sg138
g3
(g139
g5
NtRp3317
(dp3318
g12
(dp3319
I0
(dp3320
g15
g3220
sg17
g3221
ssI1
(dp3321
g15
g3223
sg17
g3224
ssI2
(dp3322
g15
g3226
sg17
g3227
ssI3
(dp3323
g15
g3229
sg17
g3230
ssI5
(dp3324
g15
g3232
sg17
g3233
ssI6
(dp3325
g15
g3235
sg17
g3236
ssI7
(dp3326
g15
g3238
sg17
g3239
ssI8
(dp3327
g15
g3241
sg17
g3242
ssI9
(dp3328
g15
g3244
sg17
g3245
ssI10
(dp3329
g15
g3247
sg17
g3248
ssI11
(dp3330
g15
S'a'
sg17
g3250
ssI12
(dp3331
g15
g3252
sg17
g3253
ssI13
(dp3332
g15
g3255
sg17
g3256
ssI14
(dp3333
g15
g3258
sg17
g3259
sssg63
(dp3334
sg116
(dp3335
I0
(dp3336
I9
(dp3337
g17
g3278
ssI3
(dp3338
g17
g3264
sssI1
(dp3339
I3
(dp3340
g17
g3269
sssI2
(dp3341
I3
(dp3342
g17
g3271
sssI3
(dp3343
I0
g3338
sI1
g3340
sI2
g3342
ssI5
(dp3344
I9
(dp3345
g17
g3280
sssI6
(dp3346
I9
(dp3347
g17
g3282
sssI7
(dp3348
I9
(dp3349
g17
g3284
sssI8
(dp3350
I9
(dp3351
g17
g3286
sssI9
(dp3352
I0
g3337
sI5
g3345
sI6
g3347
sI7
g3349
sI8
g3351
sI10
(dp3353
g17
g3288
sssI10
(dp3354
I9
g3353
sI12
(dp3355
g17
g3291
sssI11
(dp3356
I12
(dp3357
g17
g3295
sssI12
(dp3358
I10
g3355
sI11
g3357
sI13
(dp3359
g17
g3297
sssI13
(dp3360
I12
g3359
sI14
(dp3361
g17
g3300
sssI14
(dp3362
I13
g3361
sssg136
g3335
sbsg195
I0
sg196
(dp3363
I0
g3220
sI1
g3223
sI2
g3226
sI3
g3229
sI4
S','
sI5
g3232
sI6
g3235
sI7
g3238
sI8
g3241
sI9
g3244
sI10
g3247
sI11
S'a'
sI12
g3252
sI13
g3255
sI14
g3258
sI15
S'.'
ssbsI1
g3
(g4
g5
NtRp3364
(dp3365
g8
g3
(g9
g5
NtRp3366
(dp3367
g12
(dp3368
I0
(dp3369
g15
S'What'
p3370
sg17
S'What-0'
p3371
ssI1
(dp3372
g15
S'is'
p3373
sg17
S'is-1'
p3374
ssI2
(dp3375
g15
S'the'
p3376
sg17
S'the-2'
p3377
ssI3
(dp3378
g15
S'length'
p3379
sg17
S'length-3'
p3380
ssI4
(dp3381
g15
S'of'
p3382
sg17
S'of-4'
p3383
ssI5
(dp3384
g15
S'altitude'
p3385
sg17
S'altitude-5'
p3386
ssI6
(dp3387
g15
S'h'
sg17
S'h-6'
p3388
ssI7
(dp3389
g15
S'of'
p3390
sg17
S'of-7'
p3391
ssI8
(dp3392
g15
S'this'
p3393
sg17
S'this-8'
p3394
ssI9
(dp3395
g15
S'triangle'
p3396
sg17
S'triangle-9'
p3397
sssg63
(dp3398
sg65
(dp3399
I0
(dp3400
I1
(dp3401
g17
Vcop
p3402
ssI3
(dp3403
g17
Vnsubj
p3404
sssI1
(dp3405
sI2
(dp3406
sI3
(dp3407
I2
(dp3408
g17
Vdet
p3409
ssI4
(dp3410
g17
Vprep
p3411
sssI4
(dp3412
I6
(dp3413
g17
Vpobj
p3414
sssI5
(dp3415
sI6
(dp3416
I5
(dp3417
g17
Vnn
p3418
ssI7
(dp3419
g17
Vprep
p3420
sssI7
(dp3421
I9
(dp3422
g17
Vpobj
p3423
sssI8
(dp3424
sI9
(dp3425
I8
(dp3426
g17
Vdet
p3427
ssssg116
g3399
sg117
(dp3428
I0
(dp3429
sI1
(dp3430
I0
g3401
ssI2
(dp3431
I3
g3408
ssI3
(dp3432
I0
g3403
ssI4
(dp3433
I3
g3410
ssI5
(dp3434
I6
g3417
ssI6
(dp3435
I4
g3413
ssI7
(dp3436
I6
g3419
ssI8
(dp3437
I9
g3426
ssI9
(dp3438
I7
g3422
sssg136
g3399
sbsg137
F-69.951176166534424
sg138
g3
(g139
g5
NtRp3439
(dp3440
g12
(dp3441
I0
(dp3442
g15
g3370
sg17
g3371
ssI1
(dp3443
g15
g3373
sg17
g3374
ssI2
(dp3444
g15
g3376
sg17
g3377
ssI3
(dp3445
g15
g3379
sg17
g3380
ssI4
(dp3446
g15
g3382
sg17
g3383
ssI5
(dp3447
g15
g3385
sg17
g3386
ssI6
(dp3448
g15
S'h'
sg17
g3388
ssI7
(dp3449
g15
g3390
sg17
g3391
ssI8
(dp3450
g15
g3393
sg17
g3394
ssI9
(dp3451
g15
g3396
sg17
g3397
sssg63
(dp3452
sg116
(dp3453
I0
(dp3454
I1
(dp3455
g17
g3402
ssI3
(dp3456
g17
g3404
sssI1
(dp3457
I0
g3455
ssI2
(dp3458
I3
(dp3459
g17
g3409
sssI3
(dp3460
I0
g3456
sI2
g3459
sI4
(dp3461
g17
g3411
sssI4
(dp3462
I3
g3461
sI6
(dp3463
g17
g3414
sssI5
(dp3464
I6
(dp3465
g17
g3418
sssI6
(dp3466
I4
g3463
sI5
g3465
sI7
(dp3467
g17
g3420
sssI7
(dp3468
I9
(dp3469
g17
g3423
ssI6
g3467
ssI8
(dp3470
I9
(dp3471
g17
g3427
sssI9
(dp3472
I8
g3471
sI7
g3469
sssg136
g3453
sbsg195
I0
sg196
(dp3473
I0
g3370
sI1
g3373
sI2
g3376
sI3
g3379
sI4
g3382
sI5
g3385
sI6
S'h'
sI7
g3390
sI8
g3393
sI9
g3396
sI10
S'?'
ssbssI27
(dp3474
I0
g3
(g4
g5
NtRp3475
(dp3476
g8
g3
(g9
g5
NtRp3477
(dp3478
g12
(dp3479
I0
(dp3480
g15
S'In'
p3481
sg17
S'In-0'
p3482
ssI1
(dp3483
g15
S'the'
p3484
sg17
S'the-1'
p3485
ssI2
(dp3486
g15
S'diagram'
p3487
sg17
S'diagram-2'
p3488
ssI3
(dp3489
g15
S'at'
p3490
sg17
S'at-3'
p3491
ssI4
(dp3492
g15
S'the'
p3493
sg17
S'the-4'
p3494
ssI5
(dp3495
g15
S'right'
p3496
sg17
S'right-5'
p3497
ssI7
(dp3498
g15
S'the'
p3499
sg17
S'the-7'
p3500
ssI8
(dp3501
g15
S'segments'
p3502
sg17
S'segments-8'
p3503
ssI9
(dp3504
g15
S'shown'
p3505
sg17
S'shown-9'
p3506
ssI10
(dp3507
g15
S'are'
p3508
sg17
S'are-10'
p3509
ssI11
(dp3510
g15
S'tangent'
p3511
sg17
S'tangent-11'
p3512
ssI12
(dp3513
g15
S'to'
p3514
sg17
S'to-12'
p3515
ssI13
(dp3516
g15
S'the'
p3517
sg17
S'the-13'
p3518
ssI14
(dp3519
g15
S'circle'
p3520
sg17
S'circle-14'
p3521
sssg63
(dp3522
sg65
(dp3523
I0
(dp3524
I2
(dp3525
g17
Vpobj
p3526
sssI1
(dp3527
sI2
(dp3528
I1
(dp3529
g17
Vdet
p3530
ssI3
(dp3531
g17
Vprep
p3532
sssI3
(dp3533
I5
(dp3534
g17
Vpobj
p3535
sssI4
(dp3536
sI5
(dp3537
I4
(dp3538
g17
Vdet
p3539
sssI7
(dp3540
sI8
(dp3541
I9
(dp3542
g17
Vvmod
p3543
ssI7
(dp3544
g17
Vdet
p3545
sssI9
(dp3546
sI10
(dp3547
sI11
(dp3548
I0
(dp3549
g17
Vprep
p3550
ssI8
(dp3551
g17
Vnsubj
p3552
ssI10
(dp3553
g17
Vcop
p3554
ssI12
(dp3555
g17
Vprep
p3556
sssI12
(dp3557
I14
(dp3558
g17
Vpobj
p3559
sssI13
(dp3560
sI14
(dp3561
I13
(dp3562
g17
Vdet
p3563
ssssg116
g3523
sg117
(dp3564
I0
(dp3565
I11
g3549
ssI1
(dp3566
I2
g3529
ssI2
(dp3567
I0
g3525
ssI3
(dp3568
I2
g3531
ssI4
(dp3569
I5
g3538
ssI5
(dp3570
I3
g3534
ssI7
(dp3571
I8
g3544
ssI8
(dp3572
I11
g3551
ssI9
(dp3573
I8
g3542
ssI10
(dp3574
I11
g3553
ssI11
(dp3575
sI12
(dp3576
I11
g3555
ssI13
(dp3577
I14
g3562
ssI14
(dp3578
I12
g3558
sssg136
g3523
sbsg137
F-95.199598848819733
sg138
g3
(g139
g5
NtRp3579
(dp3580
g12
(dp3581
I0
(dp3582
g15
g3481
sg17
g3482
ssI1
(dp3583
g15
g3484
sg17
g3485
ssI2
(dp3584
g15
g3487
sg17
g3488
ssI3
(dp3585
g15
g3490
sg17
g3491
ssI4
(dp3586
g15
g3493
sg17
g3494
ssI5
(dp3587
g15
g3496
sg17
g3497
ssI7
(dp3588
g15
g3499
sg17
g3500
ssI8
(dp3589
g15
g3502
sg17
g3503
ssI9
(dp3590
g15
g3505
sg17
g3506
ssI10
(dp3591
g15
g3508
sg17
g3509
ssI11
(dp3592
g15
g3511
sg17
g3512
ssI12
(dp3593
g15
g3514
sg17
g3515
ssI13
(dp3594
g15
g3517
sg17
g3518
ssI14
(dp3595
g15
g3520
sg17
g3521
sssg63
(dp3596
sg116
(dp3597
I0
(dp3598
I2
(dp3599
g17
g3526
ssI11
(dp3600
g17
g3550
sssI1
(dp3601
I2
(dp3602
g17
g3530
sssI2
(dp3603
I0
g3599
sI1
g3602
sI3
(dp3604
g17
g3532
sssI3
(dp3605
I2
g3604
sI5
(dp3606
g17
g3535
sssI4
(dp3607
I5
(dp3608
g17
g3539
sssI5
(dp3609
I3
g3606
sI4
g3608
ssI7
(dp3610
I8
(dp3611
g17
g3545
sssI8
(dp3612
I9
(dp3613
g17
g3543
ssI11
(dp3614
g17
g3552
ssI7
g3611
ssI9
(dp3615
I8
g3613
ssI10
(dp3616
I11
(dp3617
g17
g3554
sssI11
(dp3618
I0
g3600
sI8
g3614
sI10
g3617
sI12
(dp3619
g17
g3556
sssI12
(dp3620
I11
g3619
sI14
(dp3621
g17
g3559
sssI13
(dp3622
I14
(dp3623
g17
g3563
sssI14
(dp3624
I12
g3621
sI13
g3623
sssg136
g3597
sbsg195
I0
sg196
(dp3625
I0
g3481
sI1
g3484
sI2
g3487
sI3
g3490
sI4
g3493
sI5
g3496
sI6
S','
sI7
g3499
sI8
g3502
sI9
g3505
sI10
g3508
sI11
g3511
sI12
g3514
sI13
g3517
sI14
g3520
sI15
S'.'
ssbsI1
g3
(g4
g5
NtRp3626
(dp3627
g8
g3
(g9
g5
NtRp3628
(dp3629
g12
(dp3630
I0
(dp3631
g15
S'Find'
p3632
sg17
S'Find-0'
p3633
ssI1
(dp3634
g15
S'the'
p3635
sg17
S'the-1'
p3636
ssI2
(dp3637
g15
S'value'
p3638
sg17
S'value-2'
p3639
ssI3
(dp3640
g15
S'of'
p3641
sg17
S'of-3'
p3642
ssI4
(dp3643
g15
S'x'
sg17
S'x-4'
p3644
sssg63
(dp3645
sg65
(dp3646
I0
(dp3647
I2
(dp3648
g17
Vdobj
p3649
sssI1
(dp3650
sI2
(dp3651
I1
(dp3652
g17
Vdet
p3653
ssI3
(dp3654
g17
Vprep
p3655
sssI3
(dp3656
I4
(dp3657
g17
Vpobj
p3658
sssI4
(dp3659
ssg116
g3646
sg117
(dp3660
I0
(dp3661
sI1
(dp3662
I2
g3652
ssI2
(dp3663
I0
g3648
ssI3
(dp3664
I2
g3654
ssI4
(dp3665
I3
g3657
sssg136
g3646
sbsg137
F-44.167018890380859
sg138
g3
(g139
g5
NtRp3666
(dp3667
g12
(dp3668
I0
(dp3669
g15
g3632
sg17
g3633
ssI1
(dp3670
g15
g3635
sg17
g3636
ssI2
(dp3671
g15
g3638
sg17
g3639
ssI3
(dp3672
g15
g3641
sg17
g3642
ssI4
(dp3673
g15
S'x'
sg17
g3644
sssg63
(dp3674
sg116
(dp3675
I0
(dp3676
I2
(dp3677
g17
g3649
sssI1
(dp3678
I2
(dp3679
g17
g3653
sssI2
(dp3680
I0
g3677
sI1
g3679
sI3
(dp3681
g17
g3655
sssI3
(dp3682
I2
g3681
sI4
(dp3683
g17
g3658
sssI4
(dp3684
I3
g3683
sssg136
g3675
sbsg195
I0
sg196
(dp3685
I0
g3632
sI1
g3635
sI2
g3638
sI3
g3641
sI4
S'x'
sI5
S'.'
ssbssI28
(dp3686
I0
g3
(g4
g5
NtRp3687
(dp3688
g8
g3
(g9
g5
NtRp3689
(dp3690
g12
(dp3691
I0
(dp3692
g15
S'Given'
p3693
sg17
S'Given-0'
p3694
ssI2
(dp3695
g15
S'Circle'
p3696
sg17
S'Circle-2'
p3697
ssI3
(dp3698
g15
S'O'
sg17
S'O-3'
p3699
ssI4
(dp3700
g15
S'with'
p3701
sg17
S'with-4'
p3702
ssI5
(dp3703
g15
S'diameter'
p3704
sg17
S'diameter-5'
p3705
ssI6
(dp3706
g15
S'CD'
p3707
sg17
S'CD-6'
p3708
sssg63
(dp3709
sg65
(dp3710
I0
(dp3711
I3
(dp3712
g17
Vdep
p3713
sssI2
(dp3714
sI3
(dp3715
I2
(dp3716
g17
Vnn
p3717
ssI4
(dp3718
g17
Vprep
p3719
sssI4
(dp3720
I6
(dp3721
g17
Vpobj
p3722
sssI5
(dp3723
sI6
(dp3724
I5
(dp3725
g17
Vnn
p3726
ssssg116
g3710
sg117
(dp3727
I0
(dp3728
sI2
(dp3729
I3
g3716
ssI3
(dp3730
I0
g3712
ssI4
(dp3731
I3
g3718
ssI5
(dp3732
I6
g3725
ssI6
(dp3733
I4
g3721
sssg136
g3710
sbsg137
F-77.751385688781738
sg138
g3
(g139
g5
NtRp3734
(dp3735
g12
(dp3736
I0
(dp3737
g15
g3693
sg17
g3694
ssI2
(dp3738
g15
g3696
sg17
g3697
ssI3
(dp3739
g15
S'O'
sg17
g3699
ssI4
(dp3740
g15
g3701
sg17
g3702
ssI5
(dp3741
g15
g3704
sg17
g3705
ssI6
(dp3742
g15
g3707
sg17
g3708
sssg63
(dp3743
sg116
(dp3744
I0
(dp3745
I3
(dp3746
g17
g3713
sssI2
(dp3747
I3
(dp3748
g17
g3717
sssI3
(dp3749
I0
g3746
sI2
g3748
sI4
(dp3750
g17
g3719
sssI4
(dp3751
I3
g3750
sI6
(dp3752
g17
g3722
sssI5
(dp3753
I6
(dp3754
g17
g3726
sssI6
(dp3755
I4
g3752
sI5
g3754
sssg136
g3744
sbsg195
I0
sg196
(dp3756
I0
g3693
sI1
S':'
sI2
g3696
sI3
S'O'
sI4
g3701
sI5
g3704
sI6
g3707
sI7
S'.'
ssbsI1
g3
(g4
g5
NtRp3757
(dp3758
g8
g3
(g9
g5
NtRp3759
(dp3760
g12
(dp3761
I0
(dp3762
g15
S'AB'
p3763
sg17
S'AB-0'
p3764
ssI1
(dp3765
g15
S'is'
p3766
sg17
S'is-1'
p3767
ssI2
(dp3768
g15
S'parallel'
p3769
sg17
S'parallel-2'
p3770
ssI3
(dp3771
g15
S'with'
p3772
sg17
S'with-3'
p3773
ssI4
(dp3774
g15
S'CD'
p3775
sg17
S'CD-4'
p3776
ssI5
(dp3777
g15
S'and'
p3778
sg17
S'and-5'
p3779
ssI6
(dp3780
g15
S'angle'
p3781
sg17
S'angle-6'
p3782
ssI7
(dp3783
g15
S'AB'
p3784
sg17
S'AB-7'
p3785
ssI8
(dp3786
g15
g59
sg17
S'equals-8'
p3787
ssI9
(dp3788
g15
S'80'
p3789
sg17
S'80-9'
p3790
ssI10
(dp3791
g15
S'degrees'
p3792
sg17
S'degrees-10'
p3793
sssg63
(dp3794
sg65
(dp3795
I0
(dp3796
sI1
(dp3797
I0
(dp3798
g17
Vnsubj
p3799
ssI8
(dp3800
g17
Vconj
p3801
ssI2
(dp3802
g17
Vadvmod
p3803
ssI3
(dp3804
g17
Vprep
p3805
ssI5
(dp3806
g17
Vcc
p3807
sssI2
(dp3808
sI3
(dp3809
I4
(dp3810
g17
Vpobj
p3811
sssI4
(dp3812
sI5
(dp3813
sI6
(dp3814
sI7
(dp3815
I6
(dp3816
g17
Vnn
p3817
sssI8
(dp3818
I10
(dp3819
g17
Vdobj
p3820
ssI7
(dp3821
g17
Vnsubj
p3822
sssI9
(dp3823
sI10
(dp3824
I9
(dp3825
g17
Vnum
p3826
ssssg116
g3795
sg117
(dp3827
I0
(dp3828
I1
g3798
ssI1
(dp3829
sI2
(dp3830
I1
g3802
ssI3
(dp3831
I1
g3804
ssI4
(dp3832
I3
g3810
ssI5
(dp3833
I1
g3806
ssI6
(dp3834
I7
g3816
ssI7
(dp3835
I8
g3821
ssI8
(dp3836
I1
g3800
ssI9
(dp3837
I10
g3825
ssI10
(dp3838
I8
g3819
sssg136
g3795
sbsg137
F-106.01205307245255
sg138
g3
(g139
g5
NtRp3839
(dp3840
g12
(dp3841
I0
(dp3842
g15
g3763
sg17
g3764
ssI1
(dp3843
g15
g3766
sg17
g3767
ssI2
(dp3844
g15
g3769
sg17
g3770
ssI3
(dp3845
g15
g3772
sg17
g3773
ssI4
(dp3846
g15
g3775
sg17
g3776
ssI5
(dp3847
g15
g3778
sg17
g3779
ssI6
(dp3848
g15
g3781
sg17
g3782
ssI7
(dp3849
g15
g3784
sg17
g3785
ssI8
(dp3850
g15
g59
sg17
g3787
ssI9
(dp3851
g15
g3789
sg17
g3790
ssI10
(dp3852
g15
g3792
sg17
g3793
sssg63
(dp3853
sg116
(dp3854
I0
(dp3855
I1
(dp3856
g17
g3799
sssI1
(dp3857
I0
g3856
sI8
(dp3858
g17
g3801
ssI2
(dp3859
g17
g3803
ssI3
(dp3860
g17
g3805
ssI5
(dp3861
g17
g3807
sssI2
(dp3862
I1
g3859
ssI3
(dp3863
I1
g3860
sI4
(dp3864
g17
g3811
sssI4
(dp3865
I3
g3864
ssI5
(dp3866
I1
g3861
ssI6
(dp3867
I7
(dp3868
g17
g3817
sssI7
(dp3869
I8
(dp3870
g17
g3822
ssI6
g3868
ssI8
(dp3871
I1
g3858
sI10
(dp3872
g17
g3820
ssI7
g3870
ssI9
(dp3873
I10
(dp3874
g17
g3826
sssI10
(dp3875
I8
g3872
sI9
g3874
sssg136
g3854
sbsg195
I0
sg196
(dp3876
I0
g3763
sI1
g3766
sI2
g3769
sI3
g3772
sI4
g3775
sI5
g3778
sI6
g3781
sI7
g3784
sI8
g59
sI9
g3789
sI10
g3792
sI11
S'.'
ssbsI2
g3
(g4
g5
NtRp3877
(dp3878
g8
g3
(g9
g5
NtRp3879
(dp3880
g12
(dp3881
I0
(dp3882
g15
S'Find'
p3883
sg17
S'Find-0'
p3884
ssI1
(dp3885
g15
S'angle'
p3886
sg17
S'angle-1'
p3887
ssI2
(dp3888
g15
S'of'
p3889
sg17
S'of-2'
p3890
ssI3
(dp3891
g15
S'arc'
p3892
sg17
S'arc-3'
p3893
ssI4
(dp3894
g15
S'CA'
p3895
sg17
S'CA-4'
p3896
sssg63
(dp3897
sg65
(dp3898
I0
(dp3899
I1
(dp3900
g17
Vdobj
p3901
sssI1
(dp3902
I2
(dp3903
g17
Vprep
p3904
sssI2
(dp3905
I4
(dp3906
g17
Vpobj
p3907
sssI3
(dp3908
sI4
(dp3909
I3
(dp3910
g17
Vnn
p3911
ssssg116
g3898
sg117
(dp3912
I0
(dp3913
sI1
(dp3914
I0
g3900
ssI2
(dp3915
I1
g3903
ssI3
(dp3916
I4
g3910
ssI4
(dp3917
I2
g3906
sssg136
g3898
sbsg137
F-62.692836761474609
sg138
g3
(g139
g5
NtRp3918
(dp3919
g12
(dp3920
I0
(dp3921
g15
g3883
sg17
g3884
ssI1
(dp3922
g15
g3886
sg17
g3887
ssI2
(dp3923
g15
g3889
sg17
g3890
ssI3
(dp3924
g15
g3892
sg17
g3893
ssI4
(dp3925
g15
g3895
sg17
g3896
sssg63
(dp3926
sg116
(dp3927
I0
(dp3928
I1
(dp3929
g17
g3901
sssI1
(dp3930
I0
g3929
sI2
(dp3931
g17
g3904
sssI2
(dp3932
I1
g3931
sI4
(dp3933
g17
g3907
sssI3
(dp3934
I4
(dp3935
g17
g3911
sssI4
(dp3936
I2
g3933
sI3
g3935
sssg136
g3927
sbsg195
I0
sg196
(dp3937
I0
g3883
sI1
g3886
sI2
g3889
sI3
g3892
sI4
g3895
sI5
S'.'
ssbssI29
(dp3938
I0
g3
(g4
g5
NtRp3939
(dp3940
g8
g3
(g9
g5
NtRp3941
(dp3942
g12
(dp3943
I0
(dp3944
g15
S'Given'
p3945
sg17
S'Given-0'
p3946
ssI1
(dp3947
g15
S'the'
p3948
sg17
S'the-1'
p3949
ssI2
(dp3950
g15
S'circle'
p3951
sg17
S'circle-2'
p3952
ssI3
(dp3953
g15
S'at'
p3954
sg17
S'at-3'
p3955
ssI4
(dp3956
g15
S'the'
p3957
sg17
S'the-4'
p3958
ssI5
(dp3959
g15
S'right'
p3960
sg17
S'right-5'
p3961
ssI6
(dp3962
g15
S'with'
p3963
sg17
S'with-6'
p3964
ssI7
(dp3965
g15
S'two'
p3966
sg17
S'two-7'
p3967
ssI8
(dp3968
g15
S'intersecting'
p3969
sg17
S'intersecting-8'
p3970
ssI9
(dp3971
g15
S'chords'
p3972
sg17
S'chords-9'
p3973
sssg63
(dp3974
sg65
(dp3975
I0
(dp3976
I2
(dp3977
g17
Vdobj
p3978
ssI3
(dp3979
g17
Vprep
p3980
ssI6
(dp3981
g17
Vprep
p3982
sssI1
(dp3983
sI2
(dp3984
I1
(dp3985
g17
Vdet
p3986
sssI3
(dp3987
I5
(dp3988
g17
Vpobj
p3989
sssI4
(dp3990
sI5
(dp3991
I4
(dp3992
g17
Vdet
p3993
sssI6
(dp3994
I9
(dp3995
g17
Vpobj
p3996
sssI7
(dp3997
sI8
(dp3998
sI9
(dp3999
I8
(dp4000
g17
Vamod
p4001
ssI7
(dp4002
g17
Vnum
p4003
ssssg116
g3975
sg117
(dp4004
I0
(dp4005
sI1
(dp4006
I2
g3985
ssI2
(dp4007
I0
g3977
ssI3
(dp4008
I0
g3979
ssI4
(dp4009
I5
g3992
ssI5
(dp4010
I3
g3988
ssI6
(dp4011
I0
g3981
ssI7
(dp4012
I9
g4002
ssI8
(dp4013
I9
g4000
ssI9
(dp4014
I6
g3995
sssg136
g3975
sbsg137
F-84.180484771728516
sg138
g3
(g139
g5
NtRp4015
(dp4016
g12
(dp4017
I0
(dp4018
g15
g3945
sg17
g3946
ssI1
(dp4019
g15
g3948
sg17
g3949
ssI2
(dp4020
g15
g3951
sg17
g3952
ssI3
(dp4021
g15
g3954
sg17
g3955
ssI4
(dp4022
g15
g3957
sg17
g3958
ssI5
(dp4023
g15
g3960
sg17
g3961
ssI6
(dp4024
g15
g3963
sg17
g3964
ssI7
(dp4025
g15
g3966
sg17
g3967
ssI8
(dp4026
g15
g3969
sg17
g3970
ssI9
(dp4027
g15
g3972
sg17
g3973
sssg63
(dp4028
sg116
(dp4029
I0
(dp4030
I2
(dp4031
g17
g3978
ssI3
(dp4032
g17
g3980
ssI6
(dp4033
g17
g3982
sssI1
(dp4034
I2
(dp4035
g17
g3986
sssI2
(dp4036
I0
g4031
sI1
g4035
ssI3
(dp4037
I0
g4032
sI5
(dp4038
g17
g3989
sssI4
(dp4039
I5
(dp4040
g17
g3993
sssI5
(dp4041
I3
g4038
sI4
g4040
ssI6
(dp4042
I0
g4033
sI9
(dp4043
g17
g3996
sssI7
(dp4044
I9
(dp4045
g17
g4003
sssI8
(dp4046
I9
(dp4047
g17
g4001
sssI9
(dp4048
I8
g4047
sI6
g4043
sI7
g4045
sssg136
g4029
sbsg195
I0
sg196
(dp4049
I0
g3945
sI1
g3948
sI2
g3951
sI3
g3954
sI4
g3957
sI5
g3960
sI6
g3963
sI7
g3966
sI8
g3969
sI9
g3972
sI10
S'.'
ssbsI1
g3
(g4
g5
NtRp4050
(dp4051
g8
g3
(g9
g5
NtRp4052
(dp4053
g12
(dp4054
I0
(dp4055
g15
S'Find'
p4056
sg17
S'Find-0'
p4057
ssI1
(dp4058
g15
S'the'
p4059
sg17
S'the-1'
p4060
ssI2
(dp4061
g15
S'length'
p4062
sg17
S'length-2'
p4063
ssI3
(dp4064
g15
S'represented'
p4065
sg17
S'represented-3'
p4066
ssI4
(dp4067
g15
S'as'
p4068
sg17
S'as-4'
p4069
ssI5
(dp4070
g15
S'x'
sg17
S'x-5'
p4071
sssg63
(dp4072
sg65
(dp4073
I0
(dp4074
I2
(dp4075
g17
Vdobj
p4076
sssI1
(dp4077
sI2
(dp4078
I1
(dp4079
g17
Vdet
p4080
ssI3
(dp4081
g17
Vvmod
p4082
sssI3
(dp4083
I4
(dp4084
g17
Vprep
p4085
sssI4
(dp4086
I5
(dp4087
g17
Vpobj
p4088
sssI5
(dp4089
ssg116
g4073
sg117
(dp4090
I0
(dp4091
sI1
(dp4092
I2
g4079
ssI2
(dp4093
I0
g4075
ssI3
(dp4094
I2
g4081
ssI4
(dp4095
I3
g4084
ssI5
(dp4096
I4
g4087
sssg136
g4073
sbsg137
F-61.433990478515625
sg138
g3
(g139
g5
NtRp4097
(dp4098
g12
(dp4099
I0
(dp4100
g15
g4056
sg17
g4057
ssI1
(dp4101
g15
g4059
sg17
g4060
ssI2
(dp4102
g15
g4062
sg17
g4063
ssI3
(dp4103
g15
g4065
sg17
g4066
ssI4
(dp4104
g15
g4068
sg17
g4069
ssI5
(dp4105
g15
S'x'
sg17
g4071
sssg63
(dp4106
sg116
(dp4107
I0
(dp4108
I2
(dp4109
g17
g4076
sssI1
(dp4110
I2
(dp4111
g17
g4080
sssI2
(dp4112
I0
g4109
sI1
g4111
sI3
(dp4113
g17
g4082
sssI3
(dp4114
I2
g4113
sI4
(dp4115
g17
g4085
sssI4
(dp4116
I3
g4115
sI5
(dp4117
g17
g4088
sssI5
(dp4118
I4
g4117
sssg136
g4107
sbsg195
I0
sg196
(dp4119
I0
g4056
sI1
g4059
sI2
g4062
sI3
g4065
sI4
g4068
sI5
S'x'
sI6
S'.'
ssbssI30
(dp4120
I0
g3
(g4
g5
NtRp4121
(dp4122
g8
g3
(g9
g5
NtRp4123
(dp4124
g12
(dp4125
I0
(dp4126
g15
S'In'
p4127
sg17
S'In-0'
p4128
ssI1
(dp4129
g15
S'the'
p4130
sg17
S'the-1'
p4131
ssI2
(dp4132
g15
S'accompanying'
p4133
sg17
S'accompanying-2'
p4134
ssI3
(dp4135
g15
S'diagram'
p4136
sg17
S'diagram-3'
p4137
ssI5
(dp4138
g15
S'tangent'
p4139
sg17
S'tangent-5'
p4140
ssI6
(dp4141
g15
S'AB'
p4142
sg17
S'AB-6'
p4143
ssI7
(dp4144
g15
S'and'
p4145
sg17
S'and-7'
p4146
ssI8
(dp4147
g15
S'secant'
p4148
sg17
S'secant-8'
p4149
ssI9
(dp4150
g15
S'ACD'
p4151
sg17
S'ACD-9'
p4152
ssI10
(dp4153
g15
S'are'
p4154
sg17
S'are-10'
p4155
ssI11
(dp4156
g15
S'drawn'
p4157
sg17
S'drawn-11'
p4158
ssI12
(dp4159
g15
S'to'
p4160
sg17
S'to-12'
p4161
ssI13
(dp4162
g15
S'circle'
p4163
sg17
S'circle-13'
p4164
ssI14
(dp4165
g15
S'O'
sg17
S'O-14'
p4166
ssI15
(dp4167
g15
S'from'
p4168
sg17
S'from-15'
p4169
ssI16
(dp4170
g15
S'point'
p4171
sg17
S'point-16'
p4172
ssI17
(dp4173
g15
S'A'
sg17
S'A-17'
p4174
ssI19
(dp4175
g15
S'AB'
p4176
sg17
S'AB-19'
p4177
ssI20
(dp4178
g15
g59
sg17
S'equals-20'
p4179
ssI21
(dp4180
g15
S'6'
sg17
S'6-21'
p4181
ssI22
(dp4182
g15
S'and'
p4183
sg17
S'and-22'
p4184
ssI23
(dp4185
g15
S'AC'
p4186
sg17
S'AC-23'
p4187
ssI24
(dp4188
g15
g59
sg17
S'equals-24'
p4189
ssI25
(dp4190
g15
S'4'
sg17
S'4-25'
p4191
sssg63
(dp4192
sg65
(dp4193
I0
(dp4194
I3
(dp4195
g17
Vpobj
p4196
sssI1
(dp4197
sI2
(dp4198
sI3
(dp4199
I1
(dp4200
g17
Vdet
p4201
ssI2
(dp4202
g17
Vamod
p4203
sssI5
(dp4204
sI6
(dp4205
I9
(dp4206
g17
Vconj
p4207
ssI5
(dp4208
g17
Vnn
p4209
ssI7
(dp4210
g17
Vcc
p4211
sssI7
(dp4212
sI8
(dp4213
sI9
(dp4214
I8
(dp4215
g17
Vnn
p4216
sssI10
(dp4217
sI11
(dp4218
I0
(dp4219
g17
Vprep
p4220
ssI6
(dp4221
g17
Vnsubjpass
p4222
ssI10
(dp4223
g17
Vauxpass
p4224
ssI12
(dp4225
g17
Vprep
p4226
ssI15
(dp4227
g17
Vprep
p4228
ssI20
(dp4229
g17
Vconj
p4230
ssI22
(dp4231
g17
Vcc
p4232
ssI24
(dp4233
g17
Vconj
p4234
sssI12
(dp4235
I14
(dp4236
g17
Vpobj
p4237
sssI13
(dp4238
sI14
(dp4239
I13
(dp4240
g17
Vnn
p4241
sssI15
(dp4242
I17
(dp4243
g17
Vpobj
p4244
sssI16
(dp4245
sI17
(dp4246
I16
(dp4247
g17
Vnn
p4248
sssI19
(dp4249
sI20
(dp4250
I19
(dp4251
g17
Vnsubj
p4252
ssI21
(dp4253
g17
Vdobj
p4254
sssI21
(dp4255
sI22
(dp4256
sI23
(dp4257
sI24
(dp4258
I25
(dp4259
g17
Vdobj
p4260
ssI23
(dp4261
g17
Vnsubj
p4262
sssI25
(dp4263
ssg116
g4193
sg117
(dp4264
I0
(dp4265
I11
g4219
ssI1
(dp4266
I3
g4200
ssI2
(dp4267
I3
g4202
ssI3
(dp4268
I0
g4195
ssI5
(dp4269
I6
g4208
ssI6
(dp4270
I11
g4221
ssI7
(dp4271
I6
g4210
ssI8
(dp4272
I9
g4215
ssI9
(dp4273
I6
g4206
ssI10
(dp4274
I11
g4223
ssI11
(dp4275
sI12
(dp4276
I11
g4225
ssI13
(dp4277
I14
g4240
ssI14
(dp4278
I12
g4236
ssI15
(dp4279
I11
g4227
ssI16
(dp4280
I17
g4247
ssI17
(dp4281
I15
g4243
ssI19
(dp4282
I20
g4251
ssI20
(dp4283
I11
g4229
ssI21
(dp4284
I20
g4253
ssI22
(dp4285
I11
g4231
ssI23
(dp4286
I24
g4261
ssI24
(dp4287
I11
g4233
ssI25
(dp4288
I24
g4259
sssg136
g4193
sbsg137
F-239.91197067499161
sg138
g3
(g139
g5
NtRp4289
(dp4290
g12
(dp4291
I0
(dp4292
g15
g4127
sg17
g4128
ssI1
(dp4293
g15
g4130
sg17
g4131
ssI2
(dp4294
g15
g4133
sg17
g4134
ssI3
(dp4295
g15
g4136
sg17
g4137
ssI5
(dp4296
g15
g4139
sg17
g4140
ssI6
(dp4297
g15
g4142
sg17
g4143
ssI7
(dp4298
g15
g4145
sg17
g4146
ssI8
(dp4299
g15
g4148
sg17
g4149
ssI9
(dp4300
g15
g4151
sg17
g4152
ssI10
(dp4301
g15
g4154
sg17
g4155
ssI11
(dp4302
g15
g4157
sg17
g4158
ssI12
(dp4303
g15
g4160
sg17
g4161
ssI13
(dp4304
g15
g4163
sg17
g4164
ssI14
(dp4305
g15
S'O'
sg17
g4166
ssI15
(dp4306
g15
g4168
sg17
g4169
ssI16
(dp4307
g15
g4171
sg17
g4172
ssI17
(dp4308
g15
S'A'
sg17
g4174
ssI19
(dp4309
g15
g4176
sg17
g4177
ssI20
(dp4310
g15
g59
sg17
g4179
ssI21
(dp4311
g15
S'6'
sg17
g4181
ssI22
(dp4312
g15
g4183
sg17
g4184
ssI23
(dp4313
g15
g4186
sg17
g4187
ssI24
(dp4314
g15
g59
sg17
g4189
ssI25
(dp4315
g15
S'4'
sg17
g4191
sssg63
(dp4316
sg116
(dp4317
I0
(dp4318
I11
(dp4319
g17
g4220
ssI3
(dp4320
g17
g4196
sssI1
(dp4321
I3
(dp4322
g17
g4201
sssI2
(dp4323
I3
(dp4324
g17
g4203
sssI3
(dp4325
I0
g4320
sI1
g4322
sI2
g4324
ssI5
(dp4326
I6
(dp4327
g17
g4209
sssI6
(dp4328
I9
(dp4329
g17
g4207
ssI11
(dp4330
g17
g4222
ssI5
g4327
sI7
(dp4331
g17
g4211
sssI7
(dp4332
I6
g4331
ssI8
(dp4333
I9
(dp4334
g17
g4216
sssI9
(dp4335
I8
g4334
sI6
g4329
ssI10
(dp4336
I11
(dp4337
g17
g4224
sssI11
(dp4338
I0
g4319
sI6
g4330
sI10
g4337
sI12
(dp4339
g17
g4226
ssI15
(dp4340
g17
g4228
ssI20
(dp4341
g17
g4230
ssI22
(dp4342
g17
g4232
ssI24
(dp4343
g17
g4234
sssI12
(dp4344
I11
g4339
sI14
(dp4345
g17
g4237
sssI13
(dp4346
I14
(dp4347
g17
g4241
sssI14
(dp4348
I12
g4345
sI13
g4347
ssI15
(dp4349
I17
(dp4350
g17
g4244
ssI11
g4340
ssI16
(dp4351
I17
(dp4352
g17
g4248
sssI17
(dp4353
I16
g4352
sI15
g4350
ssI19
(dp4354
I20
(dp4355
g17
g4252
sssI20
(dp4356
I19
g4355
sI11
g4341
sI21
(dp4357
g17
g4254
sssI21
(dp4358
I20
g4357
ssI22
(dp4359
I11
g4342
ssI23
(dp4360
I24
(dp4361
g17
g4262
sssI24
(dp4362
I25
(dp4363
g17
g4260
ssI11
g4343
sI23
g4361
ssI25
(dp4364
I24
g4363
sssg136
g4317
sbsg195
I0
sg196
(dp4365
I0
g4127
sI1
g4130
sI2
g4133
sI3
g4136
sI4
S','
sI5
g4139
sI6
g4142
sI7
g4145
sI8
g4148
sI9
g4151
sI10
g4154
sI11
g4157
sI12
g4160
sI13
g4163
sI14
S'O'
sI15
g4168
sI16
g4171
sI17
S'A'
sI18
S','
sI19
g4176
sI20
g59
sI21
S'6'
sI22
g4183
sI23
g4186
sI24
g59
sI25
S'4'
sI26
S'.'
ssbsI1
g3
(g4
g5
NtRp4366
(dp4367
g8
g3
(g9
g5
NtRp4368
(dp4369
g12
(dp4370
I0
(dp4371
g15
S'Find'
p4372
sg17
S'Find-0'
p4373
ssI1
(dp4374
g15
S'AD'
p4375
sg17
S'AD-1'
p4376
sssg63
(dp4377
sg65
(dp4378
I0
(dp4379
I1
(dp4380
g17
Vdobj
p4381
sssI1
(dp4382
ssg116
g4378
sg117
(dp4383
I0
(dp4384
sI1
(dp4385
I0
g4380
sssg136
g4378
sbsg137
F-32.270574569702148
sg138
g3
(g139
g5
NtRp4386
(dp4387
g12
(dp4388
I0
(dp4389
g15
g4372
sg17
g4373
ssI1
(dp4390
g15
g4375
sg17
g4376
sssg63
(dp4391
sg116
(dp4392
I0
(dp4393
I1
(dp4394
g17
g4381
sssI1
(dp4395
I0
g4394
sssg136
g4392
sbsg195
I0
sg196
(dp4396
I0
g4372
sI1
g4375
sI2
S'.'
ssbssI32
(dp4397
I0
g3
(g4
g5
NtRp4398
(dp4399
g8
g3
(g9
g5
NtRp4400
(dp4401
g12
(dp4402
I0
(dp4403
g15
S'In'
p4404
sg17
S'In-0'
p4405
ssI1
(dp4406
g15
S'the'
p4407
sg17
S'the-1'
p4408
ssI2
(dp4409
g15
S'diagram'
p4410
sg17
S'diagram-2'
p4411
ssI3
(dp4412
g15
S'at'
p4413
sg17
S'at-3'
p4414
ssI4
(dp4415
g15
S'the'
p4416
sg17
S'the-4'
p4417
ssI5
(dp4418
g15
S'right'
p4419
sg17
S'right-5'
p4420
ssI7
(dp4421
g15
S'secant'
p4422
sg17
S'secant-7'
p4423
ssI8
(dp4424
g15
S'AB'
p4425
sg17
S'AB-8'
p4426
ssI9
(dp4427
g15
S'intersects'
p4428
sg17
S'intersects-9'
p4429
ssI10
(dp4430
g15
S'circle'
p4431
sg17
S'circle-10'
p4432
ssI11
(dp4433
g15
S'O'
sg17
S'O-11'
p4434
ssI12
(dp4435
g15
S'at'
p4436
sg17
S'at-12'
p4437
ssI13
(dp4438
g15
S'D'
sg17
S'D-13'
p4439
ssI15
(dp4440
g15
S'secant'
p4441
sg17
S'secant-15'
p4442
ssI16
(dp4443
g15
S'AC'
p4444
sg17
S'AC-16'
p4445
ssI17
(dp4446
g15
S'intersects'
p4447
sg17
S'intersects-17'
p4448
ssI18
(dp4449
g15
S'circle'
p4450
sg17
S'circle-18'
p4451
ssI19
(dp4452
g15
S'O'
sg17
S'O-19'
p4453
ssI20
(dp4454
g15
S'at'
p4455
sg17
S'at-20'
p4456
ssI21
(dp4457
g15
S'E'
sg17
S'E-21'
p4458
ssI23
(dp4459
g15
S'AE'
p4460
sg17
S'AE-23'
p4461
ssI24
(dp4462
g15
g59
sg17
S'equals-24'
p4463
ssI25
(dp4464
g15
S'4'
sg17
S'4-25'
p4465
ssI27
(dp4466
g15
S'AC'
p4467
sg17
S'AC-27'
p4468
ssI28
(dp4469
g15
g59
sg17
S'equals-28'
p4470
ssI29
(dp4471
g15
S'24'
p4472
sg17
S'24-29'
p4473
ssI31
(dp4474
g15
S'and'
p4475
sg17
S'and-31'
p4476
ssI32
(dp4477
g15
S'AB'
p4478
sg17
S'AB-32'
p4479
ssI33
(dp4480
g15
g59
sg17
S'equals-33'
p4481
ssI34
(dp4482
g15
S'16'
p4483
sg17
S'16-34'
p4484
sssg63
(dp4485
sg65
(dp4486
I0
(dp4487
I2
(dp4488
g17
Vpobj
p4489
sssI1
(dp4490
sI2
(dp4491
I1
(dp4492
g17
Vdet
p4493
ssI3
(dp4494
g17
Vprep
p4495
sssI3
(dp4496
I5
(dp4497
g17
Vpobj
p4498
sssI4
(dp4499
sI5
(dp4500
I4
(dp4501
g17
Vdet
p4502
sssI7
(dp4503
sI8
(dp4504
I7
(dp4505
g17
Vnn
p4506
sssI9
(dp4507
I0
(dp4508
g17
Vprep
p4509
ssI33
(dp4510
g17
Vconj
p4511
ssI8
(dp4512
g17
Vnsubj
p4513
ssI11
(dp4514
g17
Vdobj
p4515
ssI17
(dp4516
g17
Vccomp
p4517
ssI24
(dp4518
g17
Vccomp
p4519
ssI28
(dp4520
g17
Vccomp
p4521
ssI31
(dp4522
g17
Vcc
p4523
sssI10
(dp4524
sI11
(dp4525
I10
(dp4526
g17
Vnn
p4527
ssI12
(dp4528
g17
Vprep
p4529
sssI12
(dp4530
I13
(dp4531
g17
Vpobj
p4532
sssI13
(dp4533
sI15
(dp4534
sI16
(dp4535
I15
(dp4536
g17
Vnn
p4537
sssI17
(dp4538
I16
(dp4539
g17
Vnsubj
p4540
ssI19
(dp4541
g17
Vdobj
p4542
sssI18
(dp4543
sI19
(dp4544
I18
(dp4545
g17
Vnn
p4546
ssI20
(dp4547
g17
Vprep
p4548
sssI20
(dp4549
I21
(dp4550
g17
Vpobj
p4551
sssI21
(dp4552
sI23
(dp4553
sI24
(dp4554
I25
(dp4555
g17
Vdobj
p4556
ssI23
(dp4557
g17
Vnsubj
p4558
sssI25
(dp4559
sI27
(dp4560
sI28
(dp4561
I27
(dp4562
g17
Vnsubj
p4563
ssI29
(dp4564
g17
Vdobj
p4565
sssI29
(dp4566
sI31
(dp4567
sI32
(dp4568
sI33
(dp4569
I32
(dp4570
g17
Vnsubj
p4571
ssI34
(dp4572
g17
Vdobj
p4573
sssI34
(dp4574
ssg116
g4486
sg117
(dp4575
I0
(dp4576
I9
g4508
ssI1
(dp4577
I2
g4492
ssI2
(dp4578
I0
g4488
ssI3
(dp4579
I2
g4494
ssI4
(dp4580
I5
g4501
ssI5
(dp4581
I3
g4497
ssI7
(dp4582
I8
g4505
ssI8
(dp4583
I9
g4512
ssI9
(dp4584
sI10
(dp4585
I11
g4526
ssI11
(dp4586
I9
g4514
ssI12
(dp4587
I11
g4528
ssI13
(dp4588
I12
g4531
ssI15
(dp4589
I16
g4536
ssI16
(dp4590
I17
g4539
ssI17
(dp4591
I9
g4516
ssI18
(dp4592
I19
g4545
ssI19
(dp4593
I17
g4541
ssI20
(dp4594
I19
g4547
ssI21
(dp4595
I20
g4550
ssI23
(dp4596
I24
g4557
ssI24
(dp4597
I9
g4518
ssI25
(dp4598
I24
g4555
ssI27
(dp4599
I28
g4562
ssI28
(dp4600
I9
g4520
ssI29
(dp4601
I28
g4564
ssI31
(dp4602
I9
g4522
ssI32
(dp4603
I33
g4570
ssI33
(dp4604
I9
g4510
ssI34
(dp4605
I33
g4572
sssg136
g4486
sbsg137
F-335.08122116327286
sg138
g3
(g139
g5
NtRp4606
(dp4607
g12
(dp4608
I0
(dp4609
g15
g4404
sg17
g4405
ssI1
(dp4610
g15
g4407
sg17
g4408
ssI2
(dp4611
g15
g4410
sg17
g4411
ssI3
(dp4612
g15
g4413
sg17
g4414
ssI4
(dp4613
g15
g4416
sg17
g4417
ssI5
(dp4614
g15
g4419
sg17
g4420
ssI7
(dp4615
g15
g4422
sg17
g4423
ssI8
(dp4616
g15
g4425
sg17
g4426
ssI9
(dp4617
g15
g4428
sg17
g4429
ssI10
(dp4618
g15
g4431
sg17
g4432
ssI11
(dp4619
g15
S'O'
sg17
g4434
ssI12
(dp4620
g15
g4436
sg17
g4437
ssI13
(dp4621
g15
S'D'
sg17
g4439
ssI15
(dp4622
g15
g4441
sg17
g4442
ssI16
(dp4623
g15
g4444
sg17
g4445
ssI17
(dp4624
g15
g4447
sg17
g4448
ssI18
(dp4625
g15
g4450
sg17
g4451
ssI19
(dp4626
g15
S'O'
sg17
g4453
ssI20
(dp4627
g15
g4455
sg17
g4456
ssI21
(dp4628
g15
S'E'
sg17
g4458
ssI23
(dp4629
g15
g4460
sg17
g4461
ssI24
(dp4630
g15
g59
sg17
g4463
ssI25
(dp4631
g15
S'4'
sg17
g4465
ssI27
(dp4632
g15
g4467
sg17
g4468
ssI28
(dp4633
g15
g59
sg17
g4470
ssI29
(dp4634
g15
g4472
sg17
g4473
ssI31
(dp4635
g15
g4475
sg17
g4476
ssI32
(dp4636
g15
g4478
sg17
g4479
ssI33
(dp4637
g15
g59
sg17
g4481
ssI34
(dp4638
g15
g4483
sg17
g4484
sssg63
(dp4639
sg116
(dp4640
I0
(dp4641
I9
(dp4642
g17
g4509
ssI2
(dp4643
g17
g4489
sssI1
(dp4644
I2
(dp4645
g17
g4493
sssI2
(dp4646
I0
g4643
sI1
g4645
sI3
(dp4647
g17
g4495
sssI3
(dp4648
I2
g4647
sI5
(dp4649
g17
g4498
sssI4
(dp4650
I5
(dp4651
g17
g4502
sssI5
(dp4652
I3
g4649
sI4
g4651
ssI7
(dp4653
I8
(dp4654
g17
g4506
sssI8
(dp4655
I9
(dp4656
g17
g4513
ssI7
g4654
ssI9
(dp4657
I0
g4642
sI33
(dp4658
g17
g4511
ssI8
g4656
sI11
(dp4659
g17
g4515
ssI17
(dp4660
g17
g4517
ssI24
(dp4661
g17
g4519
ssI28
(dp4662
g17
g4521
ssI31
(dp4663
g17
g4523
sssI10
(dp4664
I11
(dp4665
g17
g4527
sssI11
(dp4666
I9
g4659
sI10
g4665
sI12
(dp4667
g17
g4529
sssI12
(dp4668
I11
g4667
sI13
(dp4669
g17
g4532
sssI13
(dp4670
I12
g4669
ssI15
(dp4671
I16
(dp4672
g17
g4537
sssI16
(dp4673
I17
(dp4674
g17
g4540
ssI15
g4672
ssI17
(dp4675
I16
g4674
sI9
g4660
sI19
(dp4676
g17
g4542
sssI18
(dp4677
I19
(dp4678
g17
g4546
sssI19
(dp4679
I17
g4676
sI18
g4678
sI20
(dp4680
g17
g4548
sssI20
(dp4681
I19
g4680
sI21
(dp4682
g17
g4551
sssI21
(dp4683
I20
g4682
ssI23
(dp4684
I24
(dp4685
g17
g4558
sssI24
(dp4686
I9
g4661
sI23
g4685
sI25
(dp4687
g17
g4556
sssI25
(dp4688
I24
g4687
ssI27
(dp4689
I28
(dp4690
g17
g4563
sssI28
(dp4691
I9
g4662
sI27
g4690
sI29
(dp4692
g17
g4565
sssI29
(dp4693
I28
g4692
ssI31
(dp4694
I9
g4663
ssI32
(dp4695
I33
(dp4696
g17
g4571
sssI33
(dp4697
I32
g4696
sI9
g4658
sI34
(dp4698
g17
g4573
sssI34
(dp4699
I33
g4698
sssg136
g4640
sbsg195
I0
sg196
(dp4700
I0
g4404
sI1
g4407
sI2
g4410
sI3
g4413
sI4
g4416
sI5
g4419
sI6
S','
sI7
g4422
sI8
g4425
sI9
g4428
sI10
g4431
sI11
S'O'
sI12
g4436
sI13
S'D'
sI14
S','
sI15
g4441
sI16
g4444
sI17
g4447
sI18
g4450
sI19
S'O'
sI20
g4455
sI21
S'E'
sI22
S','
sI23
g4460
sI24
g59
sI25
S'4'
sI26
S','
sI27
g4467
sI28
g59
sI29
g4472
sI30
S','
sI31
g4475
sI32
g4478
sI33
g59
sI34
g4483
sI35
S'.'
ssbsI1
g3
(g4
g5
NtRp4701
(dp4702
g8
g3
(g9
g5
NtRp4703
(dp4704
g12
(dp4705
I0
(dp4706
g15
S'Find'
p4707
sg17
S'Find-0'
p4708
ssI1
(dp4709
g15
S'AD'
p4710
sg17
S'AD-1'
p4711
sssg63
(dp4712
sg65
(dp4713
I0
(dp4714
I1
(dp4715
g17
Vdobj
p4716
sssI1
(dp4717
ssg116
g4713
sg117
(dp4718
I0
(dp4719
sI1
(dp4720
I0
g4715
sssg136
g4713
sbsg137
F-32.270574569702148
sg138
g3
(g139
g5
NtRp4721
(dp4722
g12
(dp4723
I0
(dp4724
g15
g4707
sg17
g4708
ssI1
(dp4725
g15
g4710
sg17
g4711
sssg63
(dp4726
sg116
(dp4727
I0
(dp4728
I1
(dp4729
g17
g4716
sssI1
(dp4730
I0
g4729
sssg136
g4727
sbsg195
I0
sg196
(dp4731
I0
g4707
sI1
g4710
sI2
S'.'
ssbssI33
(dp4732
I0
g3
(g4
g5
NtRp4733
(dp4734
g8
g3
(g9
g5
NtRp4735
(dp4736
g12
(dp4737
I0
(dp4738
g15
S'Given'
p4739
sg17
S'Given-0'
p4740
ssI1
(dp4741
g15
S'the'
p4742
sg17
S'the-1'
p4743
ssI2
(dp4744
g15
S'circle'
p4745
sg17
S'circle-2'
p4746
ssI3
(dp4747
g15
S'at'
p4748
sg17
S'at-3'
p4749
ssI4
(dp4750
g15
S'the'
p4751
sg17
S'the-4'
p4752
ssI5
(dp4753
g15
S'right'
p4754
sg17
S'right-5'
p4755
ssI6
(dp4756
g15
S'with'
p4757
sg17
S'with-6'
p4758
ssI7
(dp4759
g15
S'diameter'
p4760
sg17
S'diameter-7'
p4761
ssI8
(dp4762
g15
S'AB'
p4763
sg17
S'AB-8'
p4764
ssI10
(dp4765
g15
S'find'
p4766
sg17
S'find-10'
p4767
ssI11
(dp4768
g15
S'x'
sg17
S'x-11'
p4769
sssg63
(dp4770
sg65
(dp4771
I0
(dp4772
I2
(dp4773
g17
Vpobj
p4774
sssI1
(dp4775
sI2
(dp4776
I1
(dp4777
g17
Vdet
p4778
ssI3
(dp4779
g17
Vprep
p4780
sssI3
(dp4781
I5
(dp4782
g17
Vpobj
p4783
sssI4
(dp4784
sI5
(dp4785
I4
(dp4786
g17
Vdet
p4787
ssI6
(dp4788
g17
Vprep
p4789
sssI6
(dp4790
I8
(dp4791
g17
Vpobj
p4792
sssI7
(dp4793
sI8
(dp4794
I7
(dp4795
g17
Vnn
p4796
sssI10
(dp4797
I0
(dp4798
g17
Vprep
p4799
ssI11
(dp4800
g17
Vdep
p4801
sssI11
(dp4802
ssg116
g4771
sg117
(dp4803
I0
(dp4804
I10
g4798
ssI1
(dp4805
I2
g4777
ssI2
(dp4806
I0
g4773
ssI3
(dp4807
I2
g4779
ssI4
(dp4808
I5
g4786
ssI5
(dp4809
I3
g4782
ssI6
(dp4810
I5
g4788
ssI7
(dp4811
I8
g4795
ssI8
(dp4812
I6
g4791
ssI10
(dp4813
sI11
(dp4814
I10
g4800
sssg136
g4771
sbsg137
F-99.378849029541016
sg138
g3
(g139
g5
NtRp4815
(dp4816
g12
(dp4817
I0
(dp4818
g15
g4739
sg17
g4740
ssI1
(dp4819
g15
g4742
sg17
g4743
ssI2
(dp4820
g15
g4745
sg17
g4746
ssI3
(dp4821
g15
g4748
sg17
g4749
ssI4
(dp4822
g15
g4751
sg17
g4752
ssI5
(dp4823
g15
g4754
sg17
g4755
ssI6
(dp4824
g15
g4757
sg17
g4758
ssI7
(dp4825
g15
g4760
sg17
g4761
ssI8
(dp4826
g15
g4763
sg17
g4764
ssI10
(dp4827
g15
g4766
sg17
g4767
ssI11
(dp4828
g15
S'x'
sg17
g4769
sssg63
(dp4829
sg116
(dp4830
I0
(dp4831
I2
(dp4832
g17
g4774
ssI10
(dp4833
g17
g4799
sssI1
(dp4834
I2
(dp4835
g17
g4778
sssI2
(dp4836
I0
g4832
sI1
g4835
sI3
(dp4837
g17
g4780
sssI3
(dp4838
I2
g4837
sI5
(dp4839
g17
g4783
sssI4
(dp4840
I5
(dp4841
g17
g4787
sssI5
(dp4842
I3
g4839
sI4
g4841
sI6
(dp4843
g17
g4789
sssI6
(dp4844
I8
(dp4845
g17
g4792
ssI5
g4843
ssI7
(dp4846
I8
(dp4847
g17
g4796
sssI8
(dp4848
I6
g4845
sI7
g4847
ssI10
(dp4849
I0
g4833
sI11
(dp4850
g17
g4801
sssI11
(dp4851
I10
g4850
sssg136
g4830
sbsg195
I0
sg196
(dp4852
I0
g4739
sI1
g4742
sI2
g4745
sI3
g4748
sI4
g4751
sI5
g4754
sI6
g4757
sI7
g4760
sI8
g4763
sI9
S','
sI10
g4766
sI11
S'x'
sI12
S'.'
ssbssI34
(dp4853
I0
g3
(g4
g5
NtRp4854
(dp4855
g8
g3
(g9
g5
NtRp4856
(dp4857
g12
(dp4858
I0
(dp4859
g15
S'Given'
p4860
sg17
S'Given-0'
p4861
ssI1
(dp4862
g15
S'a'
sg17
S'a-1'
p4863
ssI2
(dp4864
g15
S'circle'
p4865
sg17
S'circle-2'
p4866
ssI3
(dp4867
g15
S'with'
p4868
sg17
S'with-3'
p4869
ssI4
(dp4870
g15
S'the'
p4871
sg17
S'the-4'
p4872
ssI5
(dp4873
g15
S'center'
p4874
sg17
S'center-5'
p4875
ssI6
(dp4876
g15
S'indicated'
p4877
sg17
S'indicated-6'
p4878
sssg63
(dp4879
sg65
(dp4880
I0
(dp4881
I2
(dp4882
g17
Vpobj
p4883
sssI1
(dp4884
sI2
(dp4885
I1
(dp4886
g17
Vdet
p4887
ssI3
(dp4888
g17
Vprep
p4889
sssI3
(dp4890
I5
(dp4891
g17
Vpobj
p4892
sssI4
(dp4893
sI5
(dp4894
I4
(dp4895
g17
Vdet
p4896
sssI6
(dp4897
I0
(dp4898
g17
Vcsubj
p4899
ssssg116
g4880
sg117
(dp4900
I0
(dp4901
I6
g4898
ssI1
(dp4902
I2
g4886
ssI2
(dp4903
I0
g4882
ssI3
(dp4904
I2
g4888
ssI4
(dp4905
I5
g4895
ssI5
(dp4906
I3
g4891
ssI6
(dp4907
ssg136
g4880
sbsg137
F-57.002951204776764
sg138
g3
(g139
g5
NtRp4908
(dp4909
g12
(dp4910
I0
(dp4911
g15
g4860
sg17
g4861
ssI1
(dp4912
g15
S'a'
sg17
g4863
ssI2
(dp4913
g15
g4865
sg17
g4866
ssI3
(dp4914
g15
g4868
sg17
g4869
ssI4
(dp4915
g15
g4871
sg17
g4872
ssI5
(dp4916
g15
g4874
sg17
g4875
ssI6
(dp4917
g15
g4877
sg17
g4878
sssg63
(dp4918
sg116
(dp4919
I0
(dp4920
I2
(dp4921
g17
g4883
ssI6
(dp4922
g17
g4899
sssI1
(dp4923
I2
(dp4924
g17
g4887
sssI2
(dp4925
I0
g4921
sI1
g4924
sI3
(dp4926
g17
g4889
sssI3
(dp4927
I2
g4926
sI5
(dp4928
g17
g4892
sssI4
(dp4929
I5
(dp4930
g17
g4896
sssI5
(dp4931
I3
g4928
sI4
g4930
ssI6
(dp4932
I0
g4922
sssg136
g4919
sbsg195
I0
sg196
(dp4933
I0
g4860
sI1
S'a'
sI2
g4865
sI3
g4868
sI4
g4871
sI5
g4874
sI6
g4877
sI7
S'.'
ssbsI1
g3
(g4
g5
NtRp4934
(dp4935
g8
g3
(g9
g5
NtRp4936
(dp4937
g12
(dp4938
I0
(dp4939
g15
S'Find'
p4940
sg17
S'Find-0'
p4941
ssI1
(dp4942
g15
S'x'
sg17
S'x-1'
p4943
sssg63
(dp4944
sg65
(dp4945
I0
(dp4946
I1
(dp4947
g17
Vdep
p4948
sssI1
(dp4949
ssg116
g4945
sg117
(dp4950
I0
(dp4951
sI1
(dp4952
I0
g4947
sssg136
g4945
sbsg137
F-33.946170806884766
sg138
g3
(g139
g5
NtRp4953
(dp4954
g12
(dp4955
I0
(dp4956
g15
g4940
sg17
g4941
ssI1
(dp4957
g15
S'x'
sg17
g4943
sssg63
(dp4958
sg116
(dp4959
I0
(dp4960
I1
(dp4961
g17
g4948
sssI1
(dp4962
I0
g4961
sssg136
g4959
sbsg195
I0
sg196
(dp4963
I0
g4940
sI1
S'x'
sI2
S'.'
ssbssI38
(dp4964
I0
g3
(g4
g5
NtRp4965
(dp4966
g8
g3
(g9
g5
NtRp4967
(dp4968
g12
(dp4969
I0
(dp4970
g15
S'Given'
p4971
sg17
S'Given-0'
p4972
ssI1
(dp4973
g15
S'tangent'
p4974
sg17
S'tangent-1'
p4975
ssI2
(dp4976
g15
S'AC'
p4977
sg17
S'AC-2'
p4978
ssI3
(dp4979
g15
S'to'
p4980
sg17
S'to-3'
p4981
ssI4
(dp4982
g15
S'the'
p4983
sg17
S'the-4'
p4984
ssI5
(dp4985
g15
S'circle'
p4986
sg17
S'circle-5'
p4987
ssI6
(dp4988
g15
S'shown'
p4989
sg17
S'shown-6'
p4990
ssI7
(dp4991
g15
S'at'
p4992
sg17
S'at-7'
p4993
ssI8
(dp4994
g15
S'the'
p4995
sg17
S'the-8'
p4996
ssI9
(dp4997
g15
S'right'
p4998
sg17
S'right-9'
p4999
sssg63
(dp5000
sg65
(dp5001
I0
(dp5002
sI1
(dp5003
sI2
(dp5004
I0
(dp5005
g17
Vnn
p5006
ssI1
(dp5007
g17
Vnn
p5008
ssI3
(dp5009
g17
Vprep
p5010
sssI3
(dp5011
I5
(dp5012
g17
Vpobj
p5013
sssI4
(dp5014
sI5
(dp5015
I4
(dp5016
g17
Vdet
p5017
sssI6
(dp5018
I2
(dp5019
g17
Vnsubj
p5020
ssI7
(dp5021
g17
Vprep
p5022
sssI7
(dp5023
I9
(dp5024
g17
Vpobj
p5025
sssI8
(dp5026
sI9
(dp5027
I8
(dp5028
g17
Vdet
p5029
ssssg116
g5001
sg117
(dp5030
I0
(dp5031
I2
g5005
ssI1
(dp5032
I2
g5007
ssI2
(dp5033
I6
g5019
ssI3
(dp5034
I2
g5009
ssI4
(dp5035
I5
g5016
ssI5
(dp5036
I3
g5012
ssI6
(dp5037
sI7
(dp5038
I6
g5021
ssI8
(dp5039
I9
g5028
ssI9
(dp5040
I7
g5024
sssg136
g5001
sbsg137
F-89.537100374698639
sg138
g3
(g139
g5
NtRp5041
(dp5042
g12
(dp5043
I0
(dp5044
g15
g4971
sg17
g4972
ssI1
(dp5045
g15
g4974
sg17
g4975
ssI2
(dp5046
g15
g4977
sg17
g4978
ssI3
(dp5047
g15
g4980
sg17
g4981
ssI4
(dp5048
g15
g4983
sg17
g4984
ssI5
(dp5049
g15
g4986
sg17
g4987
ssI6
(dp5050
g15
g4989
sg17
g4990
ssI7
(dp5051
g15
g4992
sg17
g4993
ssI8
(dp5052
g15
g4995
sg17
g4996
ssI9
(dp5053
g15
g4998
sg17
g4999
sssg63
(dp5054
sg116
(dp5055
I0
(dp5056
I2
(dp5057
g17
g5006
sssI1
(dp5058
I2
(dp5059
g17
g5008
sssI2
(dp5060
I0
g5057
sI1
g5059
sI3
(dp5061
g17
g5010
ssI6
(dp5062
g17
g5020
sssI3
(dp5063
I2
g5061
sI5
(dp5064
g17
g5013
sssI4
(dp5065
I5
(dp5066
g17
g5017
sssI5
(dp5067
I3
g5064
sI4
g5066
ssI6
(dp5068
I2
g5062
sI7
(dp5069
g17
g5022
sssI7
(dp5070
I9
(dp5071
g17
g5025
ssI6
g5069
ssI8
(dp5072
I9
(dp5073
g17
g5029
sssI9
(dp5074
I8
g5073
sI7
g5071
sssg136
g5055
sbsg195
I0
sg196
(dp5075
I0
g4971
sI1
g4974
sI2
g4977
sI3
g4980
sI4
g4983
sI5
g4986
sI6
g4989
sI7
g4992
sI8
g4995
sI9
g4998
sI10
S'.'
ssbsI1
g3
(g4
g5
NtRp5076
(dp5077
g8
g3
(g9
g5
NtRp5078
(dp5079
g12
(dp5080
I0
(dp5081
g15
S'Find'
p5082
sg17
S'Find-0'
p5083
ssI1
(dp5084
g15
S'the'
p5085
sg17
S'the-1'
p5086
ssI2
(dp5087
g15
S'size'
p5088
sg17
S'size-2'
p5089
ssI3
(dp5090
g15
S'of'
p5091
sg17
S'of-3'
p5092
ssI4
(dp5093
g15
S'the'
p5094
sg17
S'the-4'
p5095
ssI5
(dp5096
g15
S'arc'
p5097
sg17
S'arc-5'
p5098
ssI6
(dp5099
g15
S'designated'
p5100
sg17
S'designated-6'
p5101
ssI7
(dp5102
g15
S'by'
p5103
sg17
S'by-7'
p5104
ssI8
(dp5105
g15
S'x'
sg17
S'x-8'
p5106
sssg63
(dp5107
sg65
(dp5108
I0
(dp5109
I2
(dp5110
g17
Vdobj
p5111
sssI1
(dp5112
sI2
(dp5113
I1
(dp5114
g17
Vdet
p5115
ssI3
(dp5116
g17
Vprep
p5117
sssI3
(dp5118
I5
(dp5119
g17
Vpobj
p5120
sssI4
(dp5121
sI5
(dp5122
I4
(dp5123
g17
Vdet
p5124
ssI6
(dp5125
g17
Vvmod
p5126
sssI6
(dp5127
I7
(dp5128
g17
Vprep
p5129
sssI7
(dp5130
I8
(dp5131
g17
Vpobj
p5132
sssI8
(dp5133
ssg116
g5108
sg117
(dp5134
I0
(dp5135
sI1
(dp5136
I2
g5114
ssI2
(dp5137
I0
g5110
ssI3
(dp5138
I2
g5116
ssI4
(dp5139
I5
g5123
ssI5
(dp5140
I3
g5119
ssI6
(dp5141
I5
g5125
ssI7
(dp5142
I6
g5128
ssI8
(dp5143
I7
g5131
sssg136
g5108
sbsg137
F-75.471073150634766
sg138
g3
(g139
g5
NtRp5144
(dp5145
g12
(dp5146
I0
(dp5147
g15
g5082
sg17
g5083
ssI1
(dp5148
g15
g5085
sg17
g5086
ssI2
(dp5149
g15
g5088
sg17
g5089
ssI3
(dp5150
g15
g5091
sg17
g5092
ssI4
(dp5151
g15
g5094
sg17
g5095
ssI5
(dp5152
g15
g5097
sg17
g5098
ssI6
(dp5153
g15
g5100
sg17
g5101
ssI7
(dp5154
g15
g5103
sg17
g5104
ssI8
(dp5155
g15
S'x'
sg17
g5106
sssg63
(dp5156
sg116
(dp5157
I0
(dp5158
I2
(dp5159
g17
g5111
sssI1
(dp5160
I2
(dp5161
g17
g5115
sssI2
(dp5162
I0
g5159
sI1
g5161
sI3
(dp5163
g17
g5117
sssI3
(dp5164
I2
g5163
sI5
(dp5165
g17
g5120
sssI4
(dp5166
I5
(dp5167
g17
g5124
sssI5
(dp5168
I3
g5165
sI4
g5167
sI6
(dp5169
g17
g5126
sssI6
(dp5170
I5
g5169
sI7
(dp5171
g17
g5129
sssI7
(dp5172
I8
(dp5173
g17
g5132
ssI6
g5171
ssI8
(dp5174
I7
g5173
sssg136
g5157
sbsg195
I0
sg196
(dp5175
I0
g5082
sI1
g5085
sI2
g5088
sI3
g5091
sI4
g5094
sI5
g5097
sI6
g5100
sI7
g5103
sI8
S'x'
sI9
S'.'
ssbssI39
(dp5176
I0
g3
(g4
g5
NtRp5177
(dp5178
g8
g3
(g9
g5
NtRp5179
(dp5180
g12
(dp5181
I0
(dp5182
g15
S'Given'
p5183
sg17
S'Given-0'
p5184
ssI1
(dp5185
g15
S'a'
sg17
S'a-1'
p5186
ssI2
(dp5187
g15
S'circle'
p5188
sg17
S'circle-2'
p5189
ssI3
(dp5190
g15
S'with'
p5191
sg17
S'with-3'
p5192
ssI4
(dp5193
g15
S'two'
p5194
sg17
S'two-4'
p5195
ssI5
(dp5196
g15
S'secants'
p5197
sg17
S'secants-5'
p5198
ssI6
(dp5199
g15
S'as'
p5200
sg17
S'as-6'
p5201
ssI7
(dp5202
g15
S'shown'
p5203
sg17
S'shown-7'
p5204
ssI8
(dp5205
g15
S'at'
p5206
sg17
S'at-8'
p5207
ssI9
(dp5208
g15
S'the'
p5209
sg17
S'the-9'
p5210
ssI10
(dp5211
g15
S'right'
p5212
sg17
S'right-10'
p5213
sssg63
(dp5214
sg65
(dp5215
I0
(dp5216
I2
(dp5217
g17
Vpobj
p5218
sssI1
(dp5219
sI2
(dp5220
I1
(dp5221
g17
Vdet
p5222
ssI3
(dp5223
g17
Vprep
p5224
sssI3
(dp5225
I4
(dp5226
g17
Vpobj
p5227
sssI4
(dp5228
sI5
(dp5229
I0
(dp5230
g17
Vprep
p5231
ssI7
(dp5232
g17
Vdep
p5233
sssI6
(dp5234
sI7
(dp5235
I8
(dp5236
g17
Vprep
p5237
ssI6
(dp5238
g17
Vmark
p5239
sssI8
(dp5240
I10
(dp5241
g17
Vpobj
p5242
sssI9
(dp5243
sI10
(dp5244
I9
(dp5245
g17
Vdet
p5246
ssssg116
g5215
sg117
(dp5247
I0
(dp5248
I5
g5230
ssI1
(dp5249
I2
g5221
ssI2
(dp5250
I0
g5217
ssI3
(dp5251
I2
g5223
ssI4
(dp5252
I3
g5226
ssI5
(dp5253
sI6
(dp5254
I7
g5238
ssI7
(dp5255
I5
g5232
ssI8
(dp5256
I7
g5236
ssI9
(dp5257
I10
g5245
ssI10
(dp5258
I8
g5241
sssg136
g5215
sbsg137
F-86.341962099075317
sg138
g3
(g139
g5
NtRp5259
(dp5260
g12
(dp5261
I0
(dp5262
g15
g5183
sg17
g5184
ssI1
(dp5263
g15
S'a'
sg17
g5186
ssI2
(dp5264
g15
g5188
sg17
g5189
ssI3
(dp5265
g15
g5191
sg17
g5192
ssI4
(dp5266
g15
g5194
sg17
g5195
ssI5
(dp5267
g15
g5197
sg17
g5198
ssI6
(dp5268
g15
g5200
sg17
g5201
ssI7
(dp5269
g15
g5203
sg17
g5204
ssI8
(dp5270
g15
g5206
sg17
g5207
ssI9
(dp5271
g15
g5209
sg17
g5210
ssI10
(dp5272
g15
g5212
sg17
g5213
sssg63
(dp5273
sg116
(dp5274
I0
(dp5275
I2
(dp5276
g17
g5218
ssI5
(dp5277
g17
g5231
sssI1
(dp5278
I2
(dp5279
g17
g5222
sssI2
(dp5280
I0
g5276
sI1
g5279
sI3
(dp5281
g17
g5224
sssI3
(dp5282
I2
g5281
sI4
(dp5283
g17
g5227
sssI4
(dp5284
I3
g5283
ssI5
(dp5285
I0
g5277
sI7
(dp5286
g17
g5233
sssI6
(dp5287
I7
(dp5288
g17
g5239
sssI7
(dp5289
I8
(dp5290
g17
g5237
ssI5
g5286
sI6
g5288
ssI8
(dp5291
I10
(dp5292
g17
g5242
ssI7
g5290
ssI9
(dp5293
I10
(dp5294
g17
g5246
sssI10
(dp5295
I8
g5292
sI9
g5294
sssg136
g5274
sbsg195
I0
sg196
(dp5296
I0
g5183
sI1
S'a'
sI2
g5188
sI3
g5191
sI4
g5194
sI5
g5197
sI6
g5200
sI7
g5203
sI8
g5206
sI9
g5209
sI10
g5212
sI11
S'.'
ssbsI1
g3
(g4
g5
NtRp5297
(dp5298
g8
g3
(g9
g5
NtRp5299
(dp5300
g12
(dp5301
I0
(dp5302
g15
S'Find'
p5303
sg17
S'Find-0'
p5304
ssI1
(dp5305
g15
S'the'
p5306
sg17
S'the-1'
p5307
ssI2
(dp5308
g15
S'value'
p5309
sg17
S'value-2'
p5310
ssI3
(dp5311
g15
S'of'
p5312
sg17
S'of-3'
p5313
ssI4
(dp5314
g15
S'the'
p5315
sg17
S'the-4'
p5316
ssI5
(dp5317
g15
S'arc'
p5318
sg17
S'arc-5'
p5319
ssI6
(dp5320
g15
S'designated'
p5321
sg17
S'designated-6'
p5322
ssI7
(dp5323
g15
S'by'
p5324
sg17
S'by-7'
p5325
ssI8
(dp5326
g15
S'x'
sg17
S'x-8'
p5327
sssg63
(dp5328
sg65
(dp5329
I0
(dp5330
I2
(dp5331
g17
Vdobj
p5332
sssI1
(dp5333
sI2
(dp5334
I1
(dp5335
g17
Vdet
p5336
ssI3
(dp5337
g17
Vprep
p5338
sssI3
(dp5339
I5
(dp5340
g17
Vpobj
p5341
sssI4
(dp5342
sI5
(dp5343
I4
(dp5344
g17
Vdet
p5345
ssI6
(dp5346
g17
Vvmod
p5347
sssI6
(dp5348
I7
(dp5349
g17
Vprep
p5350
sssI7
(dp5351
I8
(dp5352
g17
Vpobj
p5353
sssI8
(dp5354
ssg116
g5329
sg117
(dp5355
I0
(dp5356
sI1
(dp5357
I2
g5335
ssI2
(dp5358
I0
g5331
ssI3
(dp5359
I2
g5337
ssI4
(dp5360
I5
g5344
ssI5
(dp5361
I3
g5340
ssI6
(dp5362
I5
g5346
ssI7
(dp5363
I6
g5349
ssI8
(dp5364
I7
g5352
sssg136
g5329
sbsg137
F-74.337139129638672
sg138
g3
(g139
g5
NtRp5365
(dp5366
g12
(dp5367
I0
(dp5368
g15
g5303
sg17
g5304
ssI1
(dp5369
g15
g5306
sg17
g5307
ssI2
(dp5370
g15
g5309
sg17
g5310
ssI3
(dp5371
g15
g5312
sg17
g5313
ssI4
(dp5372
g15
g5315
sg17
g5316
ssI5
(dp5373
g15
g5318
sg17
g5319
ssI6
(dp5374
g15
g5321
sg17
g5322
ssI7
(dp5375
g15
g5324
sg17
g5325
ssI8
(dp5376
g15
S'x'
sg17
g5327
sssg63
(dp5377
sg116
(dp5378
I0
(dp5379
I2
(dp5380
g17
g5332
sssI1
(dp5381
I2
(dp5382
g17
g5336
sssI2
(dp5383
I0
g5380
sI1
g5382
sI3
(dp5384
g17
g5338
sssI3
(dp5385
I2
g5384
sI5
(dp5386
g17
g5341
sssI4
(dp5387
I5
(dp5388
g17
g5345
sssI5
(dp5389
I3
g5386
sI4
g5388
sI6
(dp5390
g17
g5347
sssI6
(dp5391
I5
g5390
sI7
(dp5392
g17
g5350
sssI7
(dp5393
I8
(dp5394
g17
g5353
ssI6
g5392
ssI8
(dp5395
I7
g5394
sssg136
g5378
sbsg195
I0
sg196
(dp5396
I0
g5303
sI1
g5306
sI2
g5309
sI3
g5312
sI4
g5315
sI5
g5318
sI6
g5321
sI7
g5324
sI8
S'x'
sI9
S'.'
ssbssI40
(dp5397
I0
g3
(g4
g5
NtRp5398
(dp5399
g8
g3
(g9
g5
NtRp5400
(dp5401
g12
(dp5402
I0
(dp5403
g15
S'Given'
p5404
sg17
S'Given-0'
p5405
ssI1
(dp5406
g15
S'the'
p5407
sg17
S'the-1'
p5408
ssI2
(dp5409
g15
S'circle'
p5410
sg17
S'circle-2'
p5411
ssI3
(dp5412
g15
S'at'
p5413
sg17
S'at-3'
p5414
ssI4
(dp5415
g15
S'the'
p5416
sg17
S'the-4'
p5417
ssI5
(dp5418
g15
S'right'
p5419
sg17
S'right-5'
p5420
ssI6
(dp5421
g15
S'with'
p5422
sg17
S'with-6'
p5423
ssI7
(dp5424
g15
S'the'
p5425
sg17
S'the-7'
p5426
ssI8
(dp5427
g15
S'indicated'
p5428
sg17
S'indicated-8'
p5429
ssI9
(dp5430
g15
S'center'
p5431
sg17
S'center-9'
p5432
sssg63
(dp5433
sg65
(dp5434
I0
(dp5435
I2
(dp5436
g17
Vdobj
p5437
ssI3
(dp5438
g17
Vprep
p5439
ssI6
(dp5440
g17
Vprep
p5441
sssI1
(dp5442
sI2
(dp5443
I1
(dp5444
g17
Vdet
p5445
sssI3
(dp5446
I5
(dp5447
g17
Vpobj
p5448
sssI4
(dp5449
sI5
(dp5450
I4
(dp5451
g17
Vdet
p5452
sssI6
(dp5453
I9
(dp5454
g17
Vpobj
p5455
sssI7
(dp5456
sI8
(dp5457
sI9
(dp5458
I8
(dp5459
g17
Vamod
p5460
ssI7
(dp5461
g17
Vdet
p5462
ssssg116
g5434
sg117
(dp5463
I0
(dp5464
sI1
(dp5465
I2
g5444
ssI2
(dp5466
I0
g5436
ssI3
(dp5467
I0
g5438
ssI4
(dp5468
I5
g5451
ssI5
(dp5469
I3
g5447
ssI6
(dp5470
I0
g5440
ssI7
(dp5471
I9
g5461
ssI8
(dp5472
I9
g5459
ssI9
(dp5473
I6
g5454
sssg136
g5434
sbsg137
F-70.363735198974609
sg138
g3
(g139
g5
NtRp5474
(dp5475
g12
(dp5476
I0
(dp5477
g15
g5404
sg17
g5405
ssI1
(dp5478
g15
g5407
sg17
g5408
ssI2
(dp5479
g15
g5410
sg17
g5411
ssI3
(dp5480
g15
g5413
sg17
g5414
ssI4
(dp5481
g15
g5416
sg17
g5417
ssI5
(dp5482
g15
g5419
sg17
g5420
ssI6
(dp5483
g15
g5422
sg17
g5423
ssI7
(dp5484
g15
g5425
sg17
g5426
ssI8
(dp5485
g15
g5428
sg17
g5429
ssI9
(dp5486
g15
g5431
sg17
g5432
sssg63
(dp5487
sg116
(dp5488
I0
(dp5489
I2
(dp5490
g17
g5437
ssI3
(dp5491
g17
g5439
ssI6
(dp5492
g17
g5441
sssI1
(dp5493
I2
(dp5494
g17
g5445
sssI2
(dp5495
I0
g5490
sI1
g5494
ssI3
(dp5496
I0
g5491
sI5
(dp5497
g17
g5448
sssI4
(dp5498
I5
(dp5499
g17
g5452
sssI5
(dp5500
I3
g5497
sI4
g5499
ssI6
(dp5501
I0
g5492
sI9
(dp5502
g17
g5455
sssI7
(dp5503
I9
(dp5504
g17
g5462
sssI8
(dp5505
I9
(dp5506
g17
g5460
sssI9
(dp5507
I8
g5506
sI6
g5502
sI7
g5504
sssg136
g5488
sbsg195
I0
sg196
(dp5508
I0
g5404
sI1
g5407
sI2
g5410
sI3
g5413
sI4
g5416
sI5
g5419
sI6
g5422
sI7
g5425
sI8
g5428
sI9
g5431
sI10
S'.'
ssbsI1
g3
(g4
g5
NtRp5509
(dp5510
g8
g3
(g9
g5
NtRp5511
(dp5512
g12
(dp5513
I0
(dp5514
g15
S'Find'
p5515
sg17
S'Find-0'
p5516
ssI1
(dp5517
g15
S'the'
p5518
sg17
S'the-1'
p5519
ssI2
(dp5520
g15
S'measure'
p5521
sg17
S'measure-2'
p5522
ssI3
(dp5523
g15
S'of'
p5524
sg17
S'of-3'
p5525
ssI4
(dp5526
g15
S'the'
p5527
sg17
S'the-4'
p5528
ssI5
(dp5529
g15
S'angle'
p5530
sg17
S'angle-5'
p5531
ssI6
(dp5532
g15
S'designated'
p5533
sg17
S'designated-6'
p5534
ssI7
(dp5535
g15
S'by'
p5536
sg17
S'by-7'
p5537
ssI8
(dp5538
g15
S'x'
sg17
S'x-8'
p5539
sssg63
(dp5540
sg65
(dp5541
I0
(dp5542
I2
(dp5543
g17
Vdobj
p5544
sssI1
(dp5545
sI2
(dp5546
I1
(dp5547
g17
Vdet
p5548
ssI3
(dp5549
g17
Vprep
p5550
sssI3
(dp5551
I5
(dp5552
g17
Vpobj
p5553
sssI4
(dp5554
sI5
(dp5555
I4
(dp5556
g17
Vdet
p5557
ssI6
(dp5558
g17
Vvmod
p5559
sssI6
(dp5560
I7
(dp5561
g17
Vprep
p5562
sssI7
(dp5563
I8
(dp5564
g17
Vpobj
p5565
sssI8
(dp5566
ssg116
g5541
sg117
(dp5567
I0
(dp5568
sI1
(dp5569
I2
g5547
ssI2
(dp5570
I0
g5543
ssI3
(dp5571
I2
g5549
ssI4
(dp5572
I5
g5556
ssI5
(dp5573
I3
g5552
ssI6
(dp5574
I5
g5558
ssI7
(dp5575
I6
g5561
ssI8
(dp5576
I7
g5564
sssg136
g5541
sbsg137
F-74.077365875244141
sg138
g3
(g139
g5
NtRp5577
(dp5578
g12
(dp5579
I0
(dp5580
g15
g5515
sg17
g5516
ssI1
(dp5581
g15
g5518
sg17
g5519
ssI2
(dp5582
g15
g5521
sg17
g5522
ssI3
(dp5583
g15
g5524
sg17
g5525
ssI4
(dp5584
g15
g5527
sg17
g5528
ssI5
(dp5585
g15
g5530
sg17
g5531
ssI6
(dp5586
g15
g5533
sg17
g5534
ssI7
(dp5587
g15
g5536
sg17
g5537
ssI8
(dp5588
g15
S'x'
sg17
g5539
sssg63
(dp5589
sg116
(dp5590
I0
(dp5591
I2
(dp5592
g17
g5544
sssI1
(dp5593
I2
(dp5594
g17
g5548
sssI2
(dp5595
I0
g5592
sI1
g5594
sI3
(dp5596
g17
g5550
sssI3
(dp5597
I2
g5596
sI5
(dp5598
g17
g5553
sssI4
(dp5599
I5
(dp5600
g17
g5557
sssI5
(dp5601
I3
g5598
sI4
g5600
sI6
(dp5602
g17
g5559
sssI6
(dp5603
I5
g5602
sI7
(dp5604
g17
g5562
sssI7
(dp5605
I8
(dp5606
g17
g5565
ssI6
g5604
ssI8
(dp5607
I7
g5606
sssg136
g5590
sbsg195
I0
sg196
(dp5608
I0
g5515
sI1
g5518
sI2
g5521
sI3
g5524
sI4
g5527
sI5
g5530
sI6
g5533
sI7
g5536
sI8
S'x'
sI9
S'.'
ssbssI41
(dp5609
I0
g3
(g4
g5
NtRp5610
(dp5611
g8
g3
(g9
g5
NtRp5612
(dp5613
g12
(dp5614
I0
(dp5615
g15
S'Given'
p5616
sg17
S'Given-0'
p5617
ssI1
(dp5618
g15
S'the'
p5619
sg17
S'the-1'
p5620
ssI2
(dp5621
g15
S'circle'
p5622
sg17
S'circle-2'
p5623
ssI3
(dp5624
g15
S'at'
p5625
sg17
S'at-3'
p5626
ssI4
(dp5627
g15
S'the'
p5628
sg17
S'the-4'
p5629
ssI5
(dp5630
g15
S'right'
p5631
sg17
S'right-5'
p5632
ssI6
(dp5633
g15
S'with'
p5634
sg17
S'with-6'
p5635
ssI7
(dp5636
g15
S'two'
p5637
sg17
S'two-7'
p5638
ssI8
(dp5639
g15
S'tangents'
p5640
sg17
S'tangents-8'
p5641
ssI9
(dp5642
g15
S'to'
p5643
sg17
S'to-9'
p5644
ssI10
(dp5645
g15
S'the'
p5646
sg17
S'the-10'
p5647
ssI11
(dp5648
g15
S'circle'
p5649
sg17
S'circle-11'
p5650
ssI12
(dp5651
g15
S'from'
p5652
sg17
S'from-12'
p5653
ssI13
(dp5654
g15
S'a'
sg17
S'a-13'
p5655
ssI14
(dp5656
g15
S'common'
p5657
sg17
S'common-14'
p5658
ssI15
(dp5659
g15
S'external'
p5660
sg17
S'external-15'
p5661
ssI16
(dp5662
g15
S'point'
p5663
sg17
S'point-16'
p5664
sssg63
(dp5665
sg65
(dp5666
I0
(dp5667
I9
(dp5668
g17
Vprep
p5669
ssI2
(dp5670
g17
Vdobj
p5671
ssI3
(dp5672
g17
Vprep
p5673
sssI1
(dp5674
sI2
(dp5675
I1
(dp5676
g17
Vdet
p5677
sssI3
(dp5678
I5
(dp5679
g17
Vpobj
p5680
sssI4
(dp5681
sI5
(dp5682
I4
(dp5683
g17
Vdet
p5684
ssI6
(dp5685
g17
Vprep
p5686
sssI6
(dp5687
I8
(dp5688
g17
Vpobj
p5689
sssI7
(dp5690
sI8
(dp5691
I7
(dp5692
g17
Vnum
p5693
sssI9
(dp5694
I11
(dp5695
g17
Vpobj
p5696
sssI10
(dp5697
sI11
(dp5698
I10
(dp5699
g17
Vdet
p5700
ssI12
(dp5701
g17
Vprep
p5702
sssI12
(dp5703
I16
(dp5704
g17
Vpobj
p5705
sssI13
(dp5706
sI14
(dp5707
sI15
(dp5708
sI16
(dp5709
I13
(dp5710
g17
Vdet
p5711
ssI14
(dp5712
g17
Vamod
p5713
ssI15
(dp5714
g17
Vamod
p5715
ssssg116
g5666
sg117
(dp5716
I0
(dp5717
sI1
(dp5718
I2
g5676
ssI2
(dp5719
I0
g5670
ssI3
(dp5720
I0
g5672
ssI4
(dp5721
I5
g5683
ssI5
(dp5722
I3
g5679
ssI6
(dp5723
I5
g5685
ssI7
(dp5724
I8
g5692
ssI8
(dp5725
I6
g5688
ssI9
(dp5726
I0
g5668
ssI10
(dp5727
I11
g5699
ssI11
(dp5728
I9
g5695
ssI12
(dp5729
I11
g5701
ssI13
(dp5730
I16
g5710
ssI14
(dp5731
I16
g5712
ssI15
(dp5732
I16
g5714
ssI16
(dp5733
I12
g5704
sssg136
g5666
sbsg137
F-118.50277328491211
sg138
g3
(g139
g5
NtRp5734
(dp5735
g12
(dp5736
I0
(dp5737
g15
g5616
sg17
g5617
ssI1
(dp5738
g15
g5619
sg17
g5620
ssI2
(dp5739
g15
g5622
sg17
g5623
ssI3
(dp5740
g15
g5625
sg17
g5626
ssI4
(dp5741
g15
g5628
sg17
g5629
ssI5
(dp5742
g15
g5631
sg17
g5632
ssI6
(dp5743
g15
g5634
sg17
g5635
ssI7
(dp5744
g15
g5637
sg17
g5638
ssI8
(dp5745
g15
g5640
sg17
g5641
ssI9
(dp5746
g15
g5643
sg17
g5644
ssI10
(dp5747
g15
g5646
sg17
g5647
ssI11
(dp5748
g15
g5649
sg17
g5650
ssI12
(dp5749
g15
g5652
sg17
g5653
ssI13
(dp5750
g15
S'a'
sg17
g5655
ssI14
(dp5751
g15
g5657
sg17
g5658
ssI15
(dp5752
g15
g5660
sg17
g5661
ssI16
(dp5753
g15
g5663
sg17
g5664
sssg63
(dp5754
sg116
(dp5755
I0
(dp5756
I9
(dp5757
g17
g5669
ssI2
(dp5758
g17
g5671
ssI3
(dp5759
g17
g5673
sssI1
(dp5760
I2
(dp5761
g17
g5677
sssI2
(dp5762
I0
g5758
sI1
g5761
ssI3
(dp5763
I0
g5759
sI5
(dp5764
g17
g5680
sssI4
(dp5765
I5
(dp5766
g17
g5684
sssI5
(dp5767
I3
g5764
sI4
g5766
sI6
(dp5768
g17
g5686
sssI6
(dp5769
I8
(dp5770
g17
g5689
ssI5
g5768
ssI7
(dp5771
I8
(dp5772
g17
g5693
sssI8
(dp5773
I6
g5770
sI7
g5772
ssI9
(dp5774
I0
g5757
sI11
(dp5775
g17
g5696
sssI10
(dp5776
I11
(dp5777
g17
g5700
sssI11
(dp5778
I9
g5775
sI10
g5777
sI12
(dp5779
g17
g5702
sssI12
(dp5780
I16
(dp5781
g17
g5705
ssI11
g5779
ssI13
(dp5782
I16
(dp5783
g17
g5711
sssI14
(dp5784
I16
(dp5785
g17
g5713
sssI15
(dp5786
I16
(dp5787
g17
g5715
sssI16
(dp5788
I12
g5781
sI13
g5783
sI14
g5785
sI15
g5787
sssg136
g5755
sbsg195
I0
sg196
(dp5789
I0
g5616
sI1
g5619
sI2
g5622
sI3
g5625
sI4
g5628
sI5
g5631
sI6
g5634
sI7
g5637
sI8
g5640
sI9
g5643
sI10
g5646
sI11
g5649
sI12
g5652
sI13
S'a'
sI14
g5657
sI15
g5660
sI16
g5663
sI17
S'.'
ssbsI1
g3
(g4
g5
NtRp5790
(dp5791
g8
g3
(g9
g5
NtRp5792
(dp5793
g12
(dp5794
I0
(dp5795
g15
S'Find'
p5796
sg17
S'Find-0'
p5797
ssI1
(dp5798
g15
S'the'
p5799
sg17
S'the-1'
p5800
ssI2
(dp5801
g15
S'measure'
p5802
sg17
S'measure-2'
p5803
ssI3
(dp5804
g15
S'of'
p5805
sg17
S'of-3'
p5806
ssI4
(dp5807
g15
S'the'
p5808
sg17
S'the-4'
p5809
ssI5
(dp5810
g15
S'angle'
p5811
sg17
S'angle-5'
p5812
ssI6
(dp5813
g15
S'designated'
p5814
sg17
S'designated-6'
p5815
ssI7
(dp5816
g15
S'by'
p5817
sg17
S'by-7'
p5818
ssI8
(dp5819
g15
S'x'
sg17
S'x-8'
p5820
sssg63
(dp5821
sg65
(dp5822
I0
(dp5823
I2
(dp5824
g17
Vdobj
p5825
sssI1
(dp5826
sI2
(dp5827
I1
(dp5828
g17
Vdet
p5829
ssI3
(dp5830
g17
Vprep
p5831
sssI3
(dp5832
I5
(dp5833
g17
Vpobj
p5834
sssI4
(dp5835
sI5
(dp5836
I4
(dp5837
g17
Vdet
p5838
ssI6
(dp5839
g17
Vvmod
p5840
sssI6
(dp5841
I7
(dp5842
g17
Vprep
p5843
sssI7
(dp5844
I8
(dp5845
g17
Vpobj
p5846
sssI8
(dp5847
ssg116
g5822
sg117
(dp5848
I0
(dp5849
sI1
(dp5850
I2
g5828
ssI2
(dp5851
I0
g5824
ssI3
(dp5852
I2
g5830
ssI4
(dp5853
I5
g5837
ssI5
(dp5854
I3
g5833
ssI6
(dp5855
I5
g5839
ssI7
(dp5856
I6
g5842
ssI8
(dp5857
I7
g5845
sssg136
g5822
sbsg137
F-74.077365875244141
sg138
g3
(g139
g5
NtRp5858
(dp5859
g12
(dp5860
I0
(dp5861
g15
g5796
sg17
g5797
ssI1
(dp5862
g15
g5799
sg17
g5800
ssI2
(dp5863
g15
g5802
sg17
g5803
ssI3
(dp5864
g15
g5805
sg17
g5806
ssI4
(dp5865
g15
g5808
sg17
g5809
ssI5
(dp5866
g15
g5811
sg17
g5812
ssI6
(dp5867
g15
g5814
sg17
g5815
ssI7
(dp5868
g15
g5817
sg17
g5818
ssI8
(dp5869
g15
S'x'
sg17
g5820
sssg63
(dp5870
sg116
(dp5871
I0
(dp5872
I2
(dp5873
g17
g5825
sssI1
(dp5874
I2
(dp5875
g17
g5829
sssI2
(dp5876
I0
g5873
sI1
g5875
sI3
(dp5877
g17
g5831
sssI3
(dp5878
I2
g5877
sI5
(dp5879
g17
g5834
sssI4
(dp5880
I5
(dp5881
g17
g5838
sssI5
(dp5882
I3
g5879
sI4
g5881
sI6
(dp5883
g17
g5840
sssI6
(dp5884
I5
g5883
sI7
(dp5885
g17
g5843
sssI7
(dp5886
I8
(dp5887
g17
g5846
ssI6
g5885
ssI8
(dp5888
I7
g5887
sssg136
g5871
sbsg195
I0
sg196
(dp5889
I0
g5796
sI1
g5799
sI2
g5802
sI3
g5805
sI4
g5808
sI5
g5811
sI6
g5814
sI7
g5817
sI8
S'x'
sI9
S'.'
ssbssI46
(dp5890
I0
g3
(g4
g5
NtRp5891
(dp5892
g8
g3
(g9
g5
NtRp5893
(dp5894
g12
(dp5895
I0
(dp5896
g15
S'In'
p5897
sg17
S'In-0'
p5898
ssI1
(dp5899
g15
S'the'
p5900
sg17
S'the-1'
p5901
ssI2
(dp5902
g15
S'diagram'
p5903
sg17
S'diagram-2'
p5904
ssI3
(dp5905
g15
S'at'
p5906
sg17
S'at-3'
p5907
ssI4
(dp5908
g15
S'the'
p5909
sg17
S'the-4'
p5910
ssI5
(dp5911
g15
S'right'
p5912
sg17
S'right-5'
p5913
ssI7
(dp5914
g15
S'line'
p5915
sg17
S'line-7'
p5916
ssI8
(dp5917
g15
S'AC'
p5918
sg17
S'AC-8'
p5919
ssI9
(dp5920
g15
g59
sg17
S'equals-9'
p5921
ssI10
(dp5922
g15
S'line'
p5923
sg17
S'line-10'
p5924
ssI11
(dp5925
g15
S'DC'
p5926
sg17
S'DC-11'
p5927
ssI12
(dp5928
g15
g59
sg17
S'equals-12'
p5929
ssI13
(dp5930
g15
S'line'
p5931
sg17
S'line-13'
p5932
ssI14
(dp5933
g15
S'DB'
p5934
sg17
S'DB-14'
p5935
sssg63
(dp5936
sg65
(dp5937
I0
(dp5938
I2
(dp5939
g17
Vpobj
p5940
sssI1
(dp5941
sI2
(dp5942
I1
(dp5943
g17
Vdet
p5944
ssI3
(dp5945
g17
Vprep
p5946
sssI3
(dp5947
I5
(dp5948
g17
Vpobj
p5949
sssI4
(dp5950
sI5
(dp5951
I4
(dp5952
g17
Vdet
p5953
sssI7
(dp5954
sI8
(dp5955
I7
(dp5956
g17
Vnn
p5957
sssI9
(dp5958
I0
(dp5959
g17
Vprep
p5960
ssI8
(dp5961
g17
Vnsubj
p5962
ssI12
(dp5963
g17
Vccomp
p5964
sssI10
(dp5965
sI11
(dp5966
I10
(dp5967
g17
Vnn
p5968
sssI12
(dp5969
I11
(dp5970
g17
Vnsubj
p5971
ssI14
(dp5972
g17
Vdobj
p5973
sssI13
(dp5974
sI14
(dp5975
I13
(dp5976
g17
Vnn
p5977
ssssg116
g5937
sg117
(dp5978
I0
(dp5979
I9
g5959
ssI1
(dp5980
I2
g5943
ssI2
(dp5981
I0
g5939
ssI3
(dp5982
I2
g5945
ssI4
(dp5983
I5
g5952
ssI5
(dp5984
I3
g5948
ssI7
(dp5985
I8
g5956
ssI8
(dp5986
I9
g5961
ssI9
(dp5987
sI10
(dp5988
I11
g5967
ssI11
(dp5989
I12
g5970
ssI12
(dp5990
I9
g5963
ssI13
(dp5991
I14
g5976
ssI14
(dp5992
I12
g5972
sssg136
g5937
sbsg137
F-139.03071457147598
sg138
g3
(g139
g5
NtRp5993
(dp5994
g12
(dp5995
I0
(dp5996
g15
g5897
sg17
g5898
ssI1
(dp5997
g15
g5900
sg17
g5901
ssI2
(dp5998
g15
g5903
sg17
g5904
ssI3
(dp5999
g15
g5906
sg17
g5907
ssI4
(dp6000
g15
g5909
sg17
g5910
ssI5
(dp6001
g15
g5912
sg17
g5913
ssI7
(dp6002
g15
g5915
sg17
g5916
ssI8
(dp6003
g15
g5918
sg17
g5919
ssI9
(dp6004
g15
g59
sg17
g5921
ssI10
(dp6005
g15
g5923
sg17
g5924
ssI11
(dp6006
g15
g5926
sg17
g5927
ssI12
(dp6007
g15
g59
sg17
g5929
ssI13
(dp6008
g15
g5931
sg17
g5932
ssI14
(dp6009
g15
g5934
sg17
g5935
sssg63
(dp6010
sg116
(dp6011
I0
(dp6012
I9
(dp6013
g17
g5960
ssI2
(dp6014
g17
g5940
sssI1
(dp6015
I2
(dp6016
g17
g5944
sssI2
(dp6017
I0
g6014
sI1
g6016
sI3
(dp6018
g17
g5946
sssI3
(dp6019
I2
g6018
sI5
(dp6020
g17
g5949
sssI4
(dp6021
I5
(dp6022
g17
g5953
sssI5
(dp6023
I3
g6020
sI4
g6022
ssI7
(dp6024
I8
(dp6025
g17
g5957
sssI8
(dp6026
I9
(dp6027
g17
g5962
ssI7
g6025
ssI9
(dp6028
I0
g6013
sI8
g6027
sI12
(dp6029
g17
g5964
sssI10
(dp6030
I11
(dp6031
g17
g5968
sssI11
(dp6032
I10
g6031
sI12
(dp6033
g17
g5971
sssI12
(dp6034
I9
g6029
sI11
g6033
sI14
(dp6035
g17
g5973
sssI13
(dp6036
I14
(dp6037
g17
g5977
sssI14
(dp6038
I12
g6035
sI13
g6037
sssg136
g6011
sbsg195
I0
sg196
(dp6039
I0
g5897
sI1
g5900
sI2
g5903
sI3
g5906
sI4
g5909
sI5
g5912
sI6
S','
sI7
g5915
sI8
g5918
sI9
g59
sI10
g5923
sI11
g5926
sI12
g59
sI13
g5931
sI14
g5934
sI15
S'.'
ssbsI1
g3
(g4
g5
NtRp6040
(dp6041
g8
g3
(g9
g5
NtRp6042
(dp6043
g12
(dp6044
I0
(dp6045
g15
S'If'
p6046
sg17
S'If-0'
p6047
ssI1
(dp6048
g15
S'the'
p6049
sg17
S'the-1'
p6050
ssI2
(dp6051
g15
S'angle'
p6052
sg17
S'angle-2'
p6053
ssI3
(dp6054
g15
S'ACD'
p6055
sg17
S'ACD-3'
p6056
ssI4
(dp6057
g15
g59
sg17
S'equals-4'
p6058
ssI5
(dp6059
g15
S'48'
p6060
sg17
S'48-5'
p6061
ssI7
(dp6062
g15
S'find'
p6063
sg17
S'find-7'
p6064
ssI8
(dp6065
g15
S'the'
p6066
sg17
S'the-8'
p6067
ssI9
(dp6068
g15
S'angle'
p6069
sg17
S'angle-9'
p6070
ssI10
(dp6071
g15
S'B'
sg17
S'B-10'
p6072
sssg63
(dp6073
sg65
(dp6074
I0
(dp6075
sI1
(dp6076
sI2
(dp6077
sI3
(dp6078
I1
(dp6079
g17
Vdet
p6080
ssI2
(dp6081
g17
Vnn
p6082
sssI4
(dp6083
I0
(dp6084
g17
Vmark
p6085
ssI3
(dp6086
g17
Vnsubj
p6087
ssI5
(dp6088
g17
Vdobj
p6089
sssI5
(dp6090
sI7
(dp6091
I10
(dp6092
g17
Vdobj
p6093
ssI4
(dp6094
g17
Vadvcl
p6095
sssI8
(dp6096
sI9
(dp6097
sI10
(dp6098
I8
(dp6099
g17
Vdet
p6100
ssI9
(dp6101
g17
Vnn
p6102
ssssg116
g6074
sg117
(dp6103
I0
(dp6104
I4
g6084
ssI1
(dp6105
I3
g6079
ssI2
(dp6106
I3
g6081
ssI3
(dp6107
I4
g6086
ssI4
(dp6108
I7
g6094
ssI5
(dp6109
I4
g6088
ssI7
(dp6110
sI8
(dp6111
I10
g6099
ssI9
(dp6112
I10
g6101
ssI10
(dp6113
I7
g6092
sssg136
g6074
sbsg137
F-98.03051620721817
sg138
g3
(g139
g5
NtRp6114
(dp6115
g12
(dp6116
I0
(dp6117
g15
g6046
sg17
g6047
ssI1
(dp6118
g15
g6049
sg17
g6050
ssI2
(dp6119
g15
g6052
sg17
g6053
ssI3
(dp6120
g15
g6055
sg17
g6056
ssI4
(dp6121
g15
g59
sg17
g6058
ssI5
(dp6122
g15
g6060
sg17
g6061
ssI7
(dp6123
g15
g6063
sg17
g6064
ssI8
(dp6124
g15
g6066
sg17
g6067
ssI9
(dp6125
g15
g6069
sg17
g6070
ssI10
(dp6126
g15
S'B'
sg17
g6072
sssg63
(dp6127
sg116
(dp6128
I0
(dp6129
I4
(dp6130
g17
g6085
sssI1
(dp6131
I3
(dp6132
g17
g6080
sssI2
(dp6133
I3
(dp6134
g17
g6082
sssI3
(dp6135
I1
g6132
sI2
g6134
sI4
(dp6136
g17
g6087
sssI4
(dp6137
I0
g6130
sI3
g6136
sI5
(dp6138
g17
g6089
ssI7
(dp6139
g17
g6095
sssI5
(dp6140
I4
g6138
ssI7
(dp6141
I10
(dp6142
g17
g6093
ssI4
g6139
ssI8
(dp6143
I10
(dp6144
g17
g6100
sssI9
(dp6145
I10
(dp6146
g17
g6102
sssI10
(dp6147
I8
g6144
sI9
g6146
sI7
g6142
sssg136
g6128
sbsg195
I0
sg196
(dp6148
I0
g6046
sI1
g6049
sI2
g6052
sI3
g6055
sI4
g59
sI5
g6060
sI6
S','
sI7
g6063
sI8
g6066
sI9
g6069
sI10
S'B'
sI11
S'.'
ssbssI47
(dp6149
I0
g3
(g4
g5
NtRp6150
(dp6151
g8
g3
(g9
g5
NtRp6152
(dp6153
g12
(dp6154
I0
(dp6155
g15
S'The'
p6156
sg17
S'The-0'
p6157
ssI1
(dp6158
g15
S'diagram'
p6159
sg17
S'diagram-1'
p6160
ssI2
(dp6161
g15
S'at'
p6162
sg17
S'at-2'
p6163
ssI3
(dp6164
g15
S'the'
p6165
sg17
S'the-3'
p6166
ssI4
(dp6167
g15
S'right'
p6168
sg17
S'right-4'
p6169
ssI5
(dp6170
g15
S'shows'
p6171
sg17
S'shows-5'
p6172
ssI6
(dp6173
g15
S'a'
sg17
S'a-6'
p6174
ssI7
(dp6175
g15
S'right'
p6176
sg17
S'right-7'
p6177
ssI8
(dp6178
g15
S'triangle'
p6179
sg17
S'triangle-8'
p6180
ssI9
(dp6181
g15
S'with'
p6182
sg17
S'with-9'
p6183
ssI10
(dp6184
g15
S'representations'
p6185
sg17
S'representations-10'
p6186
ssI11
(dp6187
g15
S'for'
p6188
sg17
S'for-11'
p6189
ssI12
(dp6190
g15
S'two'
p6191
sg17
S'two-12'
p6192
ssI13
(dp6193
g15
S'angles'
p6194
sg17
S'angles-13'
p6195
sssg63
(dp6196
sg65
(dp6197
I0
(dp6198
sI1
(dp6199
I0
(dp6200
g17
Vdet
p6201
ssI2
(dp6202
g17
Vprep
p6203
sssI2
(dp6204
I4
(dp6205
g17
Vpobj
p6206
sssI3
(dp6207
sI4
(dp6208
I3
(dp6209
g17
Vdet
p6210
sssI5
(dp6211
I8
(dp6212
g17
Vdobj
p6213
ssI1
(dp6214
g17
Vnsubj
p6215
ssI9
(dp6216
g17
Vprep
p6217
sssI6
(dp6218
sI7
(dp6219
sI8
(dp6220
I6
(dp6221
g17
Vdet
p6222
ssI7
(dp6223
g17
Vamod
p6224
sssI9
(dp6225
I10
(dp6226
g17
Vpobj
p6227
sssI10
(dp6228
I11
(dp6229
g17
Vprep
p6230
sssI11
(dp6231
I13
(dp6232
g17
Vpobj
p6233
sssI12
(dp6234
sI13
(dp6235
I12
(dp6236
g17
Vnum
p6237
ssssg116
g6197
sg117
(dp6238
I0
(dp6239
I1
g6200
ssI1
(dp6240
I5
g6214
ssI2
(dp6241
I1
g6202
ssI3
(dp6242
I4
g6209
ssI4
(dp6243
I2
g6205
ssI5
(dp6244
sI6
(dp6245
I8
g6221
ssI7
(dp6246
I8
g6223
ssI8
(dp6247
I5
g6212
ssI9
(dp6248
I5
g6216
ssI10
(dp6249
I9
g6226
ssI11
(dp6250
I10
g6229
ssI12
(dp6251
I13
g6236
ssI13
(dp6252
I11
g6232
sssg136
g6197
sbsg137
F-108.15257126092911
sg138
g3
(g139
g5
NtRp6253
(dp6254
g12
(dp6255
I0
(dp6256
g15
g6156
sg17
g6157
ssI1
(dp6257
g15
g6159
sg17
g6160
ssI2
(dp6258
g15
g6162
sg17
g6163
ssI3
(dp6259
g15
g6165
sg17
g6166
ssI4
(dp6260
g15
g6168
sg17
g6169
ssI5
(dp6261
g15
g6171
sg17
g6172
ssI6
(dp6262
g15
S'a'
sg17
g6174
ssI7
(dp6263
g15
g6176
sg17
g6177
ssI8
(dp6264
g15
g6179
sg17
g6180
ssI9
(dp6265
g15
g6182
sg17
g6183
ssI10
(dp6266
g15
g6185
sg17
g6186
ssI11
(dp6267
g15
g6188
sg17
g6189
ssI12
(dp6268
g15
g6191
sg17
g6192
ssI13
(dp6269
g15
g6194
sg17
g6195
sssg63
(dp6270
sg116
(dp6271
I0
(dp6272
I1
(dp6273
g17
g6201
sssI1
(dp6274
I0
g6273
sI2
(dp6275
g17
g6203
ssI5
(dp6276
g17
g6215
sssI2
(dp6277
I1
g6275
sI4
(dp6278
g17
g6206
sssI3
(dp6279
I4
(dp6280
g17
g6210
sssI4
(dp6281
I2
g6278
sI3
g6280
ssI5
(dp6282
I8
(dp6283
g17
g6213
ssI1
g6276
sI9
(dp6284
g17
g6217
sssI6
(dp6285
I8
(dp6286
g17
g6222
sssI7
(dp6287
I8
(dp6288
g17
g6224
sssI8
(dp6289
I5
g6283
sI6
g6286
sI7
g6288
ssI9
(dp6290
I10
(dp6291
g17
g6227
ssI5
g6284
ssI10
(dp6292
I9
g6291
sI11
(dp6293
g17
g6230
sssI11
(dp6294
I10
g6293
sI13
(dp6295
g17
g6233
sssI12
(dp6296
I13
(dp6297
g17
g6237
sssI13
(dp6298
I11
g6295
sI12
g6297
sssg136
g6271
sbsg195
I0
sg196
(dp6299
I0
g6156
sI1
g6159
sI2
g6162
sI3
g6165
sI4
g6168
sI5
g6171
sI6
S'a'
sI7
g6176
sI8
g6179
sI9
g6182
sI10
g6185
sI11
g6188
sI12
g6191
sI13
g6194
sI14
S'.'
ssbsI1
g3
(g4
g5
NtRp6300
(dp6301
g8
g3
(g9
g5
NtRp6302
(dp6303
g12
(dp6304
I0
(dp6305
g15
S'What'
p6306
sg17
S'What-0'
p6307
ssI1
(dp6308
g15
S'is'
p6309
sg17
S'is-1'
p6310
ssI2
(dp6311
g15
S'the'
p6312
sg17
S'the-2'
p6313
ssI3
(dp6314
g15
S'value'
p6315
sg17
S'value-3'
p6316
ssI4
(dp6317
g15
S'of'
p6318
sg17
S'of-4'
p6319
ssI5
(dp6320
g15
S'x'
sg17
S'x-5'
p6321
sssg63
(dp6322
sg65
(dp6323
I0
(dp6324
I1
(dp6325
g17
Vcop
p6326
ssI3
(dp6327
g17
Vnsubj
p6328
sssI1
(dp6329
sI2
(dp6330
sI3
(dp6331
I2
(dp6332
g17
Vdet
p6333
ssI4
(dp6334
g17
Vprep
p6335
sssI4
(dp6336
I5
(dp6337
g17
Vpobj
p6338
sssI5
(dp6339
ssg116
g6323
sg117
(dp6340
I0
(dp6341
sI1
(dp6342
I0
g6325
ssI2
(dp6343
I3
g6332
ssI3
(dp6344
I0
g6327
ssI4
(dp6345
I3
g6334
ssI5
(dp6346
I4
g6337
sssg136
g6323
sbsg137
F-33.899374485015869
sg138
g3
(g139
g5
NtRp6347
(dp6348
g12
(dp6349
I0
(dp6350
g15
g6306
sg17
g6307
ssI1
(dp6351
g15
g6309
sg17
g6310
ssI2
(dp6352
g15
g6312
sg17
g6313
ssI3
(dp6353
g15
g6315
sg17
g6316
ssI4
(dp6354
g15
g6318
sg17
g6319
ssI5
(dp6355
g15
S'x'
sg17
g6321
sssg63
(dp6356
sg116
(dp6357
I0
(dp6358
I1
(dp6359
g17
g6326
ssI3
(dp6360
g17
g6328
sssI1
(dp6361
I0
g6359
ssI2
(dp6362
I3
(dp6363
g17
g6333
sssI3
(dp6364
I0
g6360
sI2
g6363
sI4
(dp6365
g17
g6335
sssI4
(dp6366
I3
g6365
sI5
(dp6367
g17
g6338
sssI5
(dp6368
I4
g6367
sssg136
g6357
sbsg195
I0
sg196
(dp6369
I0
g6306
sI1
g6309
sI2
g6312
sI3
g6315
sI4
g6318
sI5
S'x'
sI6
S'?'
ssbssI48
(dp6370
I0
g3
(g4
g5
NtRp6371
(dp6372
g8
g3
(g9
g5
NtRp6373
(dp6374
g12
(dp6375
I0
(dp6376
g15
S'In'
p6377
sg17
S'In-0'
p6378
ssI1
(dp6379
g15
S'the'
p6380
sg17
S'the-1'
p6381
ssI2
(dp6382
g15
S'accompanying'
p6383
sg17
S'accompanying-2'
p6384
ssI3
(dp6385
g15
S'diagram'
p6386
sg17
S'diagram-3'
p6387
ssI5
(dp6388
g15
S'line'
p6389
sg17
S'line-5'
p6390
ssI6
(dp6391
g15
S'BA'
p6392
sg17
S'BA-6'
p6393
ssI7
(dp6394
g15
g59
sg17
S'equals-7'
p6395
ssI8
(dp6396
g15
S'line'
p6397
sg17
S'line-8'
p6398
ssI9
(dp6399
g15
S'BC'
p6400
sg17
S'BC-9'
p6401
ssI10
(dp6402
g15
S'and'
p6403
sg17
S'and-10'
p6404
ssI11
(dp6405
g15
S'angle'
p6406
sg17
S'angle-11'
p6407
ssI12
(dp6408
g15
S'x'
sg17
S'x-12'
p6409
ssI13
(dp6410
g15
g59
sg17
S'equals-13'
p6411
ssI14
(dp6412
g15
S'117'
p6413
sg17
S'117-14'
p6414
sssg63
(dp6415
sg65
(dp6416
I0
(dp6417
I3
(dp6418
g17
Vpobj
p6419
sssI1
(dp6420
sI2
(dp6421
sI3
(dp6422
I1
(dp6423
g17
Vdet
p6424
ssI2
(dp6425
g17
Vamod
p6426
sssI5
(dp6427
sI6
(dp6428
I5
(dp6429
g17
Vnn
p6430
sssI7
(dp6431
I0
(dp6432
g17
Vprep
p6433
ssI9
(dp6434
g17
Vdobj
p6435
ssI6
(dp6436
g17
Vnsubj
p6437
sssI8
(dp6438
sI9
(dp6439
I8
(dp6440
g17
Vnn
p6441
ssI10
(dp6442
g17
Vcc
p6443
ssI11
(dp6444
g17
Vconj
p6445
ssI13
(dp6446
g17
Vrcmod
p6447
sssI10
(dp6448
sI11
(dp6449
sI12
(dp6450
sI13
(dp6451
I12
(dp6452
g17
Vnsubj
p6453
ssI14
(dp6454
g17
Vdobj
p6455
sssI14
(dp6456
ssg116
g6416
sg117
(dp6457
I0
(dp6458
I7
g6432
ssI1
(dp6459
I3
g6423
ssI2
(dp6460
I3
g6425
ssI3
(dp6461
I0
g6418
ssI5
(dp6462
I6
g6429
ssI6
(dp6463
I7
g6436
ssI7
(dp6464
sI8
(dp6465
I9
g6440
ssI9
(dp6466
I7
g6434
ssI10
(dp6467
I9
g6442
ssI11
(dp6468
I9
g6444
ssI12
(dp6469
I13
g6452
ssI13
(dp6470
I9
g6446
ssI14
(dp6471
I13
g6454
sssg136
g6416
sbsg137
F-153.55006271600723
sg138
g3
(g139
g5
NtRp6472
(dp6473
g12
(dp6474
I0
(dp6475
g15
g6377
sg17
g6378
ssI1
(dp6476
g15
g6380
sg17
g6381
ssI2
(dp6477
g15
g6383
sg17
g6384
ssI3
(dp6478
g15
g6386
sg17
g6387
ssI5
(dp6479
g15
g6389
sg17
g6390
ssI6
(dp6480
g15
g6392
sg17
g6393
ssI7
(dp6481
g15
g59
sg17
g6395
ssI8
(dp6482
g15
g6397
sg17
g6398
ssI9
(dp6483
g15
g6400
sg17
g6401
ssI10
(dp6484
g15
g6403
sg17
g6404
ssI11
(dp6485
g15
g6406
sg17
g6407
ssI12
(dp6486
g15
S'x'
sg17
g6409
ssI13
(dp6487
g15
g59
sg17
g6411
ssI14
(dp6488
g15
g6413
sg17
g6414
sssg63
(dp6489
sg116
(dp6490
I0
(dp6491
I3
(dp6492
g17
g6419
ssI7
(dp6493
g17
g6433
sssI1
(dp6494
I3
(dp6495
g17
g6424
sssI2
(dp6496
I3
(dp6497
g17
g6426
sssI3
(dp6498
I0
g6492
sI1
g6495
sI2
g6497
ssI5
(dp6499
I6
(dp6500
g17
g6430
sssI6
(dp6501
I5
g6500
sI7
(dp6502
g17
g6437
sssI7
(dp6503
I0
g6493
sI9
(dp6504
g17
g6435
ssI6
g6502
ssI8
(dp6505
I9
(dp6506
g17
g6441
sssI9
(dp6507
I8
g6506
sI10
(dp6508
g17
g6443
ssI11
(dp6509
g17
g6445
ssI13
(dp6510
g17
g6447
ssI7
g6504
ssI10
(dp6511
I9
g6508
ssI11
(dp6512
I9
g6509
ssI12
(dp6513
I13
(dp6514
g17
g6453
sssI13
(dp6515
I9
g6510
sI12
g6514
sI14
(dp6516
g17
g6455
sssI14
(dp6517
I13
g6516
sssg136
g6490
sbsg195
I0
sg196
(dp6518
I0
g6377
sI1
g6380
sI2
g6383
sI3
g6386
sI4
S','
sI5
g6389
sI6
g6392
sI7
g59
sI8
g6397
sI9
g6400
sI10
g6403
sI11
g6406
sI12
S'x'
sI13
g59
sI14
g6413
sI15
S'.'
ssbsI1
g3
(g4
g5
NtRp6519
(dp6520
g8
g3
(g9
g5
NtRp6521
(dp6522
g12
(dp6523
I0
(dp6524
g15
S'Find'
p6525
sg17
S'Find-0'
p6526
ssI1
(dp6527
g15
S'angle'
p6528
sg17
S'angle-1'
p6529
ssI2
(dp6530
g15
S'y'
sg17
S'y-2'
p6531
sssg63
(dp6532
sg65
(dp6533
I0
(dp6534
I2
(dp6535
g17
Vdobj
p6536
sssI1
(dp6537
sI2
(dp6538
I1
(dp6539
g17
Vnn
p6540
ssssg116
g6533
sg117
(dp6541
I0
(dp6542
sI1
(dp6543
I2
g6539
ssI2
(dp6544
I0
g6535
sssg136
g6533
sbsg137
F-44.458656311035156
sg138
g3
(g139
g5
NtRp6545
(dp6546
g12
(dp6547
I0
(dp6548
g15
g6525
sg17
g6526
ssI1
(dp6549
g15
g6528
sg17
g6529
ssI2
(dp6550
g15
S'y'
sg17
g6531
sssg63
(dp6551
sg116
(dp6552
I0
(dp6553
I2
(dp6554
g17
g6536
sssI1
(dp6555
I2
(dp6556
g17
g6540
sssI2
(dp6557
I0
g6554
sI1
g6556
sssg136
g6552
sbsg195
I0
sg196
(dp6558
I0
g6525
sI1
g6528
sI2
S'y'
sI3
S'.'
ssbssI49
(dp6559
I0
g3
(g4
g5
NtRp6560
(dp6561
g8
g3
(g9
g5
NtRp6562
(dp6563
g12
(dp6564
I0
(dp6565
g15
S'In'
p6566
sg17
S'In-0'
p6567
ssI1
(dp6568
g15
S'the'
p6569
sg17
S'the-1'
p6570
ssI2
(dp6571
g15
S'diagram'
p6572
sg17
S'diagram-2'
p6573
ssI3
(dp6574
g15
S'at'
p6575
sg17
S'at-3'
p6576
ssI4
(dp6577
g15
S'the'
p6578
sg17
S'the-4'
p6579
ssI5
(dp6580
g15
S'right'
p6581
sg17
S'right-5'
p6582
ssI7
(dp6583
g15
S'the'
p6584
sg17
S'the-7'
p6585
ssI8
(dp6586
g15
S'angles'
p6587
sg17
S'angles-8'
p6588
ssI9
(dp6589
g15
S'are'
p6590
sg17
S'are-9'
p6591
ssI10
(dp6592
g15
S'represented'
p6593
sg17
S'represented-10'
p6594
ssI11
(dp6595
g15
S'as'
p6596
sg17
S'as-11'
p6597
ssI12
(dp6598
g15
S'shown'
p6599
sg17
S'shown-12'
p6600
sssg63
(dp6601
sg65
(dp6602
I0
(dp6603
I2
(dp6604
g17
Vpobj
p6605
sssI1
(dp6606
sI2
(dp6607
I1
(dp6608
g17
Vdet
p6609
ssI3
(dp6610
g17
Vprep
p6611
sssI3
(dp6612
I5
(dp6613
g17
Vpobj
p6614
sssI4
(dp6615
sI5
(dp6616
I4
(dp6617
g17
Vdet
p6618
sssI7
(dp6619
sI8
(dp6620
I7
(dp6621
g17
Vdet
p6622
sssI9
(dp6623
sI10
(dp6624
I0
(dp6625
g17
Vprep
p6626
ssI8
(dp6627
g17
Vnsubjpass
p6628
ssI12
(dp6629
g17
Vadvcl
p6630
ssI9
(dp6631
g17
Vauxpass
p6632
sssI11
(dp6633
sI12
(dp6634
I11
(dp6635
g17
Vmark
p6636
ssssg116
g6602
sg117
(dp6637
I0
(dp6638
I10
g6625
ssI1
(dp6639
I2
g6608
ssI2
(dp6640
I0
g6604
ssI3
(dp6641
I2
g6610
ssI4
(dp6642
I5
g6617
ssI5
(dp6643
I3
g6613
ssI7
(dp6644
I8
g6621
ssI8
(dp6645
I10
g6627
ssI9
(dp6646
I10
g6631
ssI10
(dp6647
sI11
(dp6648
I12
g6635
ssI12
(dp6649
I10
g6629
sssg136
g6602
sbsg137
F-83.950598299503326
sg138
g3
(g139
g5
NtRp6650
(dp6651
g12
(dp6652
I0
(dp6653
g15
g6566
sg17
g6567
ssI1
(dp6654
g15
g6569
sg17
g6570
ssI2
(dp6655
g15
g6572
sg17
g6573
ssI3
(dp6656
g15
g6575
sg17
g6576
ssI4
(dp6657
g15
g6578
sg17
g6579
ssI5
(dp6658
g15
g6581
sg17
g6582
ssI7
(dp6659
g15
g6584
sg17
g6585
ssI8
(dp6660
g15
g6587
sg17
g6588
ssI9
(dp6661
g15
g6590
sg17
g6591
ssI10
(dp6662
g15
g6593
sg17
g6594
ssI11
(dp6663
g15
g6596
sg17
g6597
ssI12
(dp6664
g15
g6599
sg17
g6600
sssg63
(dp6665
sg116
(dp6666
I0
(dp6667
I2
(dp6668
g17
g6605
ssI10
(dp6669
g17
g6626
sssI1
(dp6670
I2
(dp6671
g17
g6609
sssI2
(dp6672
I0
g6668
sI1
g6671
sI3
(dp6673
g17
g6611
sssI3
(dp6674
I2
g6673
sI5
(dp6675
g17
g6614
sssI4
(dp6676
I5
(dp6677
g17
g6618
sssI5
(dp6678
I3
g6675
sI4
g6677
ssI7
(dp6679
I8
(dp6680
g17
g6622
sssI8
(dp6681
I10
(dp6682
g17
g6628
ssI7
g6680
ssI9
(dp6683
I10
(dp6684
g17
g6632
sssI10
(dp6685
I0
g6669
sI8
g6682
sI12
(dp6686
g17
g6630
ssI9
g6684
ssI11
(dp6687
I12
(dp6688
g17
g6636
sssI12
(dp6689
I10
g6686
sI11
g6688
sssg136
g6666
sbsg195
I0
sg196
(dp6690
I0
g6566
sI1
g6569
sI2
g6572
sI3
g6575
sI4
g6578
sI5
g6581
sI6
S','
sI7
g6584
sI8
g6587
sI9
g6590
sI10
g6593
sI11
g6596
sI12
g6599
sI13
S'.'
ssbsI1
g3
(g4
g5
NtRp6691
(dp6692
g8
g3
(g9
g5
NtRp6693
(dp6694
g12
(dp6695
I0
(dp6696
g15
S'Find'
p6697
sg17
S'Find-0'
p6698
ssI1
(dp6699
g15
S'the'
p6700
sg17
S'the-1'
p6701
ssI2
(dp6702
g15
S'angle'
p6703
sg17
S'angle-2'
p6704
ssI3
(dp6705
g15
S'DBC'
p6706
sg17
S'DBC-3'
p6707
sssg63
(dp6708
sg65
(dp6709
I0
(dp6710
I3
(dp6711
g17
Vdobj
p6712
sssI1
(dp6713
sI2
(dp6714
sI3
(dp6715
I1
(dp6716
g17
Vdet
p6717
ssI2
(dp6718
g17
Vnn
p6719
ssssg116
g6709
sg117
(dp6720
I0
(dp6721
sI1
(dp6722
I3
g6716
ssI2
(dp6723
I3
g6718
ssI3
(dp6724
I0
g6711
sssg136
g6709
sbsg137
F-47.086296081542969
sg138
g3
(g139
g5
NtRp6725
(dp6726
g12
(dp6727
I0
(dp6728
g15
g6697
sg17
g6698
ssI1
(dp6729
g15
g6700
sg17
g6701
ssI2
(dp6730
g15
g6703
sg17
g6704
ssI3
(dp6731
g15
g6706
sg17
g6707
sssg63
(dp6732
sg116
(dp6733
I0
(dp6734
I3
(dp6735
g17
g6712
sssI1
(dp6736
I3
(dp6737
g17
g6717
sssI2
(dp6738
I3
(dp6739
g17
g6719
sssI3
(dp6740
I0
g6735
sI1
g6737
sI2
g6739
sssg136
g6733
sbsg195
I0
sg196
(dp6741
I0
g6697
sI1
g6700
sI2
g6703
sI3
g6706
sI4
S'.'
ssbssI53
(dp6742
I0
g3
(g4
g5
NtRp6743
(dp6744
g8
g3
(g9
g5
NtRp6745
(dp6746
g12
(dp6747
I0
(dp6748
g15
S'Points'
p6749
sg17
S'Points-0'
p6750
ssI1
(dp6751
g15
S'A'
sg17
S'A-1'
p6752
ssI3
(dp6753
g15
S'B'
sg17
S'B-3'
p6754
ssI5
(dp6755
g15
S'C'
sg17
S'C-5'
p6756
ssI7
(dp6757
g15
S'and'
p6758
sg17
S'and-7'
p6759
ssI8
(dp6760
g15
S'D'
sg17
S'D-8'
p6761
ssI9
(dp6762
g15
S'are'
p6763
sg17
S'are-9'
p6764
ssI10
(dp6765
g15
S'midpoints'
p6766
sg17
S'midpoints-10'
p6767
ssI11
(dp6768
g15
S'of'
p6769
sg17
S'of-11'
p6770
ssI12
(dp6771
g15
S'the'
p6772
sg17
S'the-12'
p6773
ssI13
(dp6774
g15
S'sides'
p6775
sg17
S'sides-13'
p6776
ssI14
(dp6777
g15
S'of'
p6778
sg17
S'of-14'
p6779
ssI15
(dp6780
g15
S'square'
p6781
sg17
S'square-15'
p6782
ssI16
(dp6783
g15
S'JETS'
p6784
sg17
S'JETS-16'
p6785
sssg63
(dp6786
sg65
(dp6787
I0
(dp6788
sI1
(dp6789
I0
(dp6790
g17
Vnn
p6791
sssI3
(dp6792
I8
(dp6793
g17
Vconj
p6794
ssI5
(dp6795
g17
Vconj
p6796
ssI7
(dp6797
g17
Vcc
p6798
sssI5
(dp6799
sI7
(dp6800
sI8
(dp6801
sI9
(dp6802
sI10
(dp6803
I11
(dp6804
g17
Vprep
p6805
ssI1
(dp6806
g17
Vnsubj
p6807
ssI3
(dp6808
g17
Vnsubj
p6809
ssI9
(dp6810
g17
Vcop
p6811
sssI11
(dp6812
I13
(dp6813
g17
Vpobj
p6814
sssI12
(dp6815
sI13
(dp6816
I12
(dp6817
g17
Vdet
p6818
ssI14
(dp6819
g17
Vprep
p6820
sssI14
(dp6821
I16
(dp6822
g17
Vpobj
p6823
sssI15
(dp6824
sI16
(dp6825
I15
(dp6826
g17
Vamod
p6827
ssssg116
g6787
sg117
(dp6828
I0
(dp6829
I1
g6790
ssI1
(dp6830
I10
g6806
ssI3
(dp6831
I10
g6808
ssI5
(dp6832
I3
g6795
ssI7
(dp6833
I3
g6797
ssI8
(dp6834
I3
g6793
ssI9
(dp6835
I10
g6810
ssI10
(dp6836
sI11
(dp6837
I10
g6804
ssI12
(dp6838
I13
g6817
ssI13
(dp6839
I11
g6813
ssI14
(dp6840
I13
g6819
ssI15
(dp6841
I16
g6826
ssI16
(dp6842
I14
g6822
sssg136
g6787
sbsg137
F-129.57052475214005
sg138
g3
(g139
g5
NtRp6843
(dp6844
g12
(dp6845
I0
(dp6846
g15
g6749
sg17
g6750
ssI1
(dp6847
g15
S'A'
sg17
g6752
ssI3
(dp6848
g15
S'B'
sg17
g6754
ssI5
(dp6849
g15
S'C'
sg17
g6756
ssI7
(dp6850
g15
g6758
sg17
g6759
ssI8
(dp6851
g15
S'D'
sg17
g6761
ssI9
(dp6852
g15
g6763
sg17
g6764
ssI10
(dp6853
g15
g6766
sg17
g6767
ssI11
(dp6854
g15
g6769
sg17
g6770
ssI12
(dp6855
g15
g6772
sg17
g6773
ssI13
(dp6856
g15
g6775
sg17
g6776
ssI14
(dp6857
g15
g6778
sg17
g6779
ssI15
(dp6858
g15
g6781
sg17
g6782
ssI16
(dp6859
g15
g6784
sg17
g6785
sssg63
(dp6860
sg116
(dp6861
I0
(dp6862
I1
(dp6863
g17
g6791
sssI1
(dp6864
I0
g6863
sI10
(dp6865
g17
g6807
sssI3
(dp6866
I8
(dp6867
g17
g6794
ssI10
(dp6868
g17
g6809
ssI5
(dp6869
g17
g6796
ssI7
(dp6870
g17
g6798
sssI5
(dp6871
I3
g6869
ssI7
(dp6872
I3
g6870
ssI8
(dp6873
I3
g6867
ssI9
(dp6874
I10
(dp6875
g17
g6811
sssI10
(dp6876
I3
g6868
sI1
g6865
sI11
(dp6877
g17
g6805
ssI9
g6875
ssI11
(dp6878
I10
g6877
sI13
(dp6879
g17
g6814
sssI12
(dp6880
I13
(dp6881
g17
g6818
sssI13
(dp6882
I11
g6879
sI12
g6881
sI14
(dp6883
g17
g6820
sssI14
(dp6884
I16
(dp6885
g17
g6823
ssI13
g6883
ssI15
(dp6886
I16
(dp6887
g17
g6827
sssI16
(dp6888
I14
g6885
sI15
g6887
sssg136
g6861
sbsg195
I0
sg196
(dp6889
I0
g6749
sI1
S'A'
sI2
S','
sI3
S'B'
sI4
S','
sI5
S'C'
sI6
S','
sI7
g6758
sI8
S'D'
sI9
g6763
sI10
g6766
sI11
g6769
sI12
g6772
sI13
g6775
sI14
g6778
sI15
g6781
sI16
g6784
sI17
S'.'
ssbsI1
g3
(g4
g5
NtRp6890
(dp6891
g8
g3
(g9
g5
NtRp6892
(dp6893
g12
(dp6894
I0
(dp6895
g15
S'If'
p6896
sg17
S'If-0'
p6897
ssI1
(dp6898
g15
S'the'
p6899
sg17
S'the-1'
p6900
ssI2
(dp6901
g15
S'area'
p6902
sg17
S'area-2'
p6903
ssI3
(dp6904
g15
S'of'
p6905
sg17
S'of-3'
p6906
ssI4
(dp6907
g15
S'JETS'
p6908
sg17
S'JETS-4'
p6909
ssI5
(dp6910
g15
S'is'
p6911
sg17
S'is-5'
p6912
ssI6
(dp6913
g15
S'36'
p6914
sg17
S'36-6'
p6915
ssI8
(dp6916
g15
S'the'
p6917
sg17
S'the-8'
p6918
ssI9
(dp6919
g15
S'area'
p6920
sg17
S'area-9'
p6921
ssI10
(dp6922
g15
S'of'
p6923
sg17
S'of-10'
p6924
ssI11
(dp6925
g15
S'ABCD'
p6926
sg17
S'ABCD-11'
p6927
ssI12
(dp6928
g15
S'is'
p6929
sg17
S'is-12'
p6930
sssg63
(dp6931
sg65
(dp6932
I0
(dp6933
sI1
(dp6934
sI2
(dp6935
I1
(dp6936
g17
Vdet
p6937
ssI3
(dp6938
g17
Vprep
p6939
sssI3
(dp6940
I4
(dp6941
g17
Vpobj
p6942
sssI4
(dp6943
sI5
(dp6944
sI6
(dp6945
I0
(dp6946
g17
Vmark
p6947
ssI2
(dp6948
g17
Vnsubj
p6949
ssI5
(dp6950
g17
Vcop
p6951
sssI8
(dp6952
sI9
(dp6953
I8
(dp6954
g17
Vdet
p6955
ssI10
(dp6956
g17
Vprep
p6957
sssI10
(dp6958
I11
(dp6959
g17
Vpobj
p6960
sssI11
(dp6961
sI12
(dp6962
I9
(dp6963
g17
Vnsubj
p6964
ssI6
(dp6965
g17
Vadvcl
p6966
ssssg116
g6932
sg117
(dp6967
I0
(dp6968
I6
g6946
ssI1
(dp6969
I2
g6936
ssI2
(dp6970
I6
g6948
ssI3
(dp6971
I2
g6938
ssI4
(dp6972
I3
g6941
ssI5
(dp6973
I6
g6950
ssI6
(dp6974
I12
g6965
ssI8
(dp6975
I9
g6954
ssI9
(dp6976
I12
g6963
ssI10
(dp6977
I9
g6956
ssI11
(dp6978
I10
g6959
ssI12
(dp6979
ssg136
g6932
sbsg137
F-90.539259493350983
sg138
g3
(g139
g5
NtRp6980
(dp6981
g12
(dp6982
I0
(dp6983
g15
g6896
sg17
g6897
ssI1
(dp6984
g15
g6899
sg17
g6900
ssI2
(dp6985
g15
g6902
sg17
g6903
ssI3
(dp6986
g15
g6905
sg17
g6906
ssI4
(dp6987
g15
g6908
sg17
g6909
ssI5
(dp6988
g15
g6911
sg17
g6912
ssI6
(dp6989
g15
g6914
sg17
g6915
ssI8
(dp6990
g15
g6917
sg17
g6918
ssI9
(dp6991
g15
g6920
sg17
g6921
ssI10
(dp6992
g15
g6923
sg17
g6924
ssI11
(dp6993
g15
g6926
sg17
g6927
ssI12
(dp6994
g15
g6929
sg17
g6930
sssg63
(dp6995
sg116
(dp6996
I0
(dp6997
I6
(dp6998
g17
g6947
sssI1
(dp6999
I2
(dp7000
g17
g6937
sssI2
(dp7001
I1
g7000
sI3
(dp7002
g17
g6939
ssI6
(dp7003
g17
g6949
sssI3
(dp7004
I2
g7002
sI4
(dp7005
g17
g6942
sssI4
(dp7006
I3
g7005
ssI5
(dp7007
I6
(dp7008
g17
g6951
sssI6
(dp7009
I0
g6998
sI2
g7003
sI12
(dp7010
g17
g6966
ssI5
g7008
ssI8
(dp7011
I9
(dp7012
g17
g6955
sssI9
(dp7013
I8
g7012
sI10
(dp7014
g17
g6957
ssI12
(dp7015
g17
g6964
sssI10
(dp7016
I9
g7014
sI11
(dp7017
g17
g6960
sssI11
(dp7018
I10
g7017
ssI12
(dp7019
I9
g7015
sI6
g7010
sssg136
g6996
sbsg195
I0
sg196
(dp7020
I0
g6896
sI1
g6899
sI2
g6902
sI3
g6905
sI4
g6908
sI5
g6911
sI6
g6914
sI7
S','
sI8
g6917
sI9
g6920
sI10
g6923
sI11
g6926
sI12
g6929
ssbssI56
(dp7021
I0
g3
(g4
g5
NtRp7022
(dp7023
g8
g3
(g9
g5
NtRp7024
(dp7025
g12
(dp7026
I0
(dp7027
g15
S'In'
p7028
sg17
S'In-0'
p7029
ssI1
(dp7030
g15
S'the'
p7031
sg17
S'the-1'
p7032
ssI2
(dp7033
g15
S'accompanying'
p7034
sg17
S'accompanying-2'
p7035
ssI3
(dp7036
g15
S'diagram'
p7037
sg17
S'diagram-3'
p7038
ssI4
(dp7039
g15
S'of'
p7040
sg17
S'of-4'
p7041
ssI5
(dp7042
g15
S'rectangle'
p7043
sg17
S'rectangle-5'
p7044
ssI6
(dp7045
g15
S'ABCD'
p7046
sg17
S'ABCD-6'
p7047
ssI8
(dp7048
g15
S'angle'
p7049
sg17
S'angle-8'
p7050
ssI9
(dp7051
g15
S'ABE'
p7052
sg17
S'ABE-9'
p7053
ssI10
(dp7054
g15
g59
sg17
S'equals-10'
p7055
ssI11
(dp7056
g15
S'30'
p7057
sg17
S'30-11'
p7058
ssI12
(dp7059
g15
S'and'
p7060
sg17
S'and-12'
p7061
ssI13
(dp7062
g15
S'angle'
p7063
sg17
S'angle-13'
p7064
ssI14
(dp7065
g15
S'CFE'
p7066
sg17
S'CFE-14'
p7067
ssI15
(dp7068
g15
g59
sg17
S'equals-15'
p7069
ssI16
(dp7070
g15
S'144'
p7071
sg17
S'144-16'
p7072
sssg63
(dp7073
sg65
(dp7074
I0
(dp7075
I3
(dp7076
g17
Vpobj
p7077
sssI1
(dp7078
sI2
(dp7079
sI3
(dp7080
I1
(dp7081
g17
Vdet
p7082
ssI2
(dp7083
g17
Vamod
p7084
ssI4
(dp7085
g17
Vprep
p7086
sssI4
(dp7087
I6
(dp7088
g17
Vpobj
p7089
sssI5
(dp7090
sI6
(dp7091
I5
(dp7092
g17
Vnn
p7093
sssI8
(dp7094
sI9
(dp7095
I8
(dp7096
g17
Vnn
p7097
sssI10
(dp7098
I0
(dp7099
g17
Vprep
p7100
ssI9
(dp7101
g17
Vnsubj
p7102
ssI15
(dp7103
g17
Vccomp
p7104
sssI11
(dp7105
I12
(dp7106
g17
Vcc
p7107
ssI14
(dp7108
g17
Vconj
p7109
sssI12
(dp7110
sI13
(dp7111
sI14
(dp7112
I13
(dp7113
g17
Vnn
p7114
sssI15
(dp7115
I16
(dp7116
g17
Vdobj
p7117
ssI11
(dp7118
g17
Vnsubj
p7119
sssI16
(dp7120
ssg116
g7074
sg117
(dp7121
I0
(dp7122
I10
g7099
ssI1
(dp7123
I3
g7081
ssI2
(dp7124
I3
g7083
ssI3
(dp7125
I0
g7076
ssI4
(dp7126
I3
g7085
ssI5
(dp7127
I6
g7092
ssI6
(dp7128
I4
g7088
ssI8
(dp7129
I9
g7096
ssI9
(dp7130
I10
g7101
ssI10
(dp7131
sI11
(dp7132
I15
g7118
ssI12
(dp7133
I11
g7106
ssI13
(dp7134
I14
g7113
ssI14
(dp7135
I11
g7108
ssI15
(dp7136
I10
g7103
ssI16
(dp7137
I15
g7116
sssg136
g7074
sbsg137
F-172.34942489862442
sg138
g3
(g139
g5
NtRp7138
(dp7139
g12
(dp7140
I0
(dp7141
g15
g7028
sg17
g7029
ssI1
(dp7142
g15
g7031
sg17
g7032
ssI2
(dp7143
g15
g7034
sg17
g7035
ssI3
(dp7144
g15
g7037
sg17
g7038
ssI4
(dp7145
g15
g7040
sg17
g7041
ssI5
(dp7146
g15
g7043
sg17
g7044
ssI6
(dp7147
g15
g7046
sg17
g7047
ssI8
(dp7148
g15
g7049
sg17
g7050
ssI9
(dp7149
g15
g7052
sg17
g7053
ssI10
(dp7150
g15
g59
sg17
g7055
ssI11
(dp7151
g15
g7057
sg17
g7058
ssI12
(dp7152
g15
g7060
sg17
g7061
ssI13
(dp7153
g15
g7063
sg17
g7064
ssI14
(dp7154
g15
g7066
sg17
g7067
ssI15
(dp7155
g15
g59
sg17
g7069
ssI16
(dp7156
g15
g7071
sg17
g7072
sssg63
(dp7157
sg116
(dp7158
I0
(dp7159
I10
(dp7160
g17
g7100
ssI3
(dp7161
g17
g7077
sssI1
(dp7162
I3
(dp7163
g17
g7082
sssI2
(dp7164
I3
(dp7165
g17
g7084
sssI3
(dp7166
I0
g7161
sI1
g7163
sI2
g7165
sI4
(dp7167
g17
g7086
sssI4
(dp7168
I3
g7167
sI6
(dp7169
g17
g7089
sssI5
(dp7170
I6
(dp7171
g17
g7093
sssI6
(dp7172
I4
g7169
sI5
g7171
ssI8
(dp7173
I9
(dp7174
g17
g7097
sssI9
(dp7175
I8
g7174
sI10
(dp7176
g17
g7102
sssI10
(dp7177
I0
g7160
sI9
g7176
sI15
(dp7178
g17
g7104
sssI11
(dp7179
I12
(dp7180
g17
g7107
ssI14
(dp7181
g17
g7109
ssI15
(dp7182
g17
g7119
sssI12
(dp7183
I11
g7180
ssI13
(dp7184
I14
(dp7185
g17
g7114
sssI14
(dp7186
I11
g7181
sI13
g7185
ssI15
(dp7187
I16
(dp7188
g17
g7117
ssI10
g7178
sI11
g7182
ssI16
(dp7189
I15
g7188
sssg136
g7158
sbsg195
I0
sg196
(dp7190
I0
g7028
sI1
g7031
sI2
g7034
sI3
g7037
sI4
g7040
sI5
g7043
sI6
g7046
sI7
S','
sI8
g7049
sI9
g7052
sI10
g59
sI11
g7057
sI12
g7060
sI13
g7063
sI14
g7066
sI15
g59
sI16
g7071
sI17
S'.'
ssbsI1
g3
(g4
g5
NtRp7191
(dp7192
g8
g3
(g9
g5
NtRp7193
(dp7194
g12
(dp7195
I0
(dp7196
g15
S'Find'
p7197
sg17
S'Find-0'
p7198
ssI1
(dp7199
g15
S'angle'
p7200
sg17
S'angle-1'
p7201
ssI2
(dp7202
g15
S'BEF'
p7203
sg17
S'BEF-2'
p7204
sssg63
(dp7205
sg65
(dp7206
I0
(dp7207
I2
(dp7208
g17
Vdobj
p7209
sssI1
(dp7210
sI2
(dp7211
I1
(dp7212
g17
Vnn
p7213
ssssg116
g7206
sg117
(dp7214
I0
(dp7215
sI1
(dp7216
I2
g7212
ssI2
(dp7217
I0
g7208
sssg136
g7206
sbsg137
F-46.944293975830078
sg138
g3
(g139
g5
NtRp7218
(dp7219
g12
(dp7220
I0
(dp7221
g15
g7197
sg17
g7198
ssI1
(dp7222
g15
g7200
sg17
g7201
ssI2
(dp7223
g15
g7203
sg17
g7204
sssg63
(dp7224
sg116
(dp7225
I0
(dp7226
I2
(dp7227
g17
g7209
sssI1
(dp7228
I2
(dp7229
g17
g7213
sssI2
(dp7230
I0
g7227
sI1
g7229
sssg136
g7225
sbsg195
I0
sg196
(dp7231
I0
g7197
sI1
g7200
sI2
g7203
sI3
S'.'
ssbssI60
(dp7232
I0
g3
(g4
g5
NtRp7233
(dp7234
g8
g3
(g9
g5
NtRp7235
(dp7236
g12
(dp7237
I0
(dp7238
g15
S'In'
p7239
sg17
S'In-0'
p7240
ssI1
(dp7241
g15
S'the'
p7242
sg17
S'the-1'
p7243
ssI2
(dp7244
g15
S'diagram'
p7245
sg17
S'diagram-2'
p7246
ssI3
(dp7247
g15
S'at'
p7248
sg17
S'at-3'
p7249
ssI4
(dp7250
g15
S'the'
p7251
sg17
S'the-4'
p7252
ssI5
(dp7253
g15
S'right'
p7254
sg17
S'right-5'
p7255
ssI7
(dp7256
g15
S'ABCD'
p7257
sg17
S'ABCD-7'
p7258
ssI8
(dp7259
g15
S'is'
p7260
sg17
S'is-8'
p7261
ssI9
(dp7262
g15
S'a'
sg17
S'a-9'
p7263
ssI10
(dp7264
g15
S'square'
p7265
sg17
S'square-10'
p7266
ssI12
(dp7267
g15
S'diagonal'
p7268
sg17
S'diagonal-12'
p7269
ssI13
(dp7270
g15
S'BD'
p7271
sg17
S'BD-13'
p7272
ssI14
(dp7273
g15
S'is'
p7274
sg17
S'is-14'
p7275
ssI15
(dp7276
g15
S'extended'
p7277
sg17
S'extended-15'
p7278
ssI16
(dp7279
g15
S'through'
p7280
sg17
S'through-16'
p7281
ssI17
(dp7282
g15
S'D'
sg17
S'D-17'
p7283
ssI18
(dp7284
g15
S'to'
p7285
sg17
S'to-18'
p7286
ssI19
(dp7287
g15
S'E'
sg17
S'E-19'
p7288
ssI21
(dp7289
g15
S'line'
p7290
sg17
S'line-21'
p7291
ssI22
(dp7292
g15
S'AD'
p7293
sg17
S'AD-22'
p7294
ssI23
(dp7295
g15
g59
sg17
S'equals-23'
p7296
ssI24
(dp7297
g15
S'line'
p7298
sg17
S'line-24'
p7299
ssI25
(dp7300
g15
S'DE'
p7301
sg17
S'DE-25'
p7302
ssI27
(dp7303
g15
S'and'
p7304
sg17
S'and-27'
p7305
ssI28
(dp7306
g15
S'line'
p7307
sg17
S'line-28'
p7308
ssI29
(dp7309
g15
S'AE'
p7310
sg17
S'AE-29'
p7311
ssI30
(dp7312
g15
S'is'
p7313
sg17
S'is-30'
p7314
ssI31
(dp7315
g15
S'drawn'
p7316
sg17
S'drawn-31'
p7317
sssg63
(dp7318
sg65
(dp7319
I0
(dp7320
I2
(dp7321
g17
Vpobj
p7322
sssI1
(dp7323
sI2
(dp7324
I1
(dp7325
g17
Vdet
p7326
ssI3
(dp7327
g17
Vprep
p7328
sssI3
(dp7329
I5
(dp7330
g17
Vpobj
p7331
sssI4
(dp7332
sI5
(dp7333
I4
(dp7334
g17
Vdet
p7335
sssI7
(dp7336
sI8
(dp7337
sI9
(dp7338
sI10
(dp7339
I0
(dp7340
g17
Vprep
p7341
ssI7
(dp7342
g17
Vnsubj
p7343
ssI8
(dp7344
g17
Vcop
p7345
ssI9
(dp7346
g17
Vdet
p7347
ssI15
(dp7348
g17
Vccomp
p7349
ssI23
(dp7350
g17
Vccomp
p7351
ssI27
(dp7352
g17
Vcc
p7353
ssI31
(dp7354
g17
Vconj
p7355
sssI12
(dp7356
sI13
(dp7357
I12
(dp7358
g17
Vnn
p7359
sssI14
(dp7360
sI15
(dp7361
I16
(dp7362
g17
Vprep
p7363
ssI18
(dp7364
g17
Vprep
p7365
ssI13
(dp7366
g17
Vnsubjpass
p7367
ssI14
(dp7368
g17
Vauxpass
p7369
sssI16
(dp7370
I17
(dp7371
g17
Vpobj
p7372
sssI17
(dp7373
sI18
(dp7374
I19
(dp7375
g17
Vpobj
p7376
sssI19
(dp7377
sI21
(dp7378
sI22
(dp7379
I21
(dp7380
g17
Vnn
p7381
sssI23
(dp7382
I25
(dp7383
g17
Vdobj
p7384
ssI22
(dp7385
g17
Vnsubj
p7386
sssI24
(dp7387
sI25
(dp7388
I24
(dp7389
g17
Vnn
p7390
sssI27
(dp7391
sI28
(dp7392
sI29
(dp7393
I28
(dp7394
g17
Vnn
p7395
sssI30
(dp7396
sI31
(dp7397
I29
(dp7398
g17
Vnsubjpass
p7399
ssI30
(dp7400
g17
Vauxpass
p7401
ssssg116
g7319
sg117
(dp7402
I0
(dp7403
I10
g7340
ssI1
(dp7404
I2
g7325
ssI2
(dp7405
I0
g7321
ssI3
(dp7406
I2
g7327
ssI4
(dp7407
I5
g7334
ssI5
(dp7408
I3
g7330
ssI7
(dp7409
I10
g7342
ssI8
(dp7410
I10
g7344
ssI9
(dp7411
I10
g7346
ssI10
(dp7412
sI12
(dp7413
I13
g7358
ssI13
(dp7414
I15
g7366
ssI14
(dp7415
I15
g7368
ssI15
(dp7416
I10
g7348
ssI16
(dp7417
I15
g7362
ssI17
(dp7418
I16
g7371
ssI18
(dp7419
I15
g7364
ssI19
(dp7420
I18
g7375
ssI21
(dp7421
I22
g7380
ssI22
(dp7422
I23
g7385
ssI23
(dp7423
I10
g7350
ssI24
(dp7424
I25
g7389
ssI25
(dp7425
I23
g7383
ssI27
(dp7426
I10
g7352
ssI28
(dp7427
I29
g7394
ssI29
(dp7428
I31
g7398
ssI30
(dp7429
I31
g7400
ssI31
(dp7430
I10
g7354
sssg136
g7319
sbsg137
F-261.88493210077286
sg138
g3
(g139
g5
NtRp7431
(dp7432
g12
(dp7433
I0
(dp7434
g15
g7239
sg17
g7240
ssI1
(dp7435
g15
g7242
sg17
g7243
ssI2
(dp7436
g15
g7245
sg17
g7246
ssI3
(dp7437
g15
g7248
sg17
g7249
ssI4
(dp7438
g15
g7251
sg17
g7252
ssI5
(dp7439
g15
g7254
sg17
g7255
ssI7
(dp7440
g15
g7257
sg17
g7258
ssI8
(dp7441
g15
g7260
sg17
g7261
ssI9
(dp7442
g15
S'a'
sg17
g7263
ssI10
(dp7443
g15
g7265
sg17
g7266
ssI12
(dp7444
g15
g7268
sg17
g7269
ssI13
(dp7445
g15
g7271
sg17
g7272
ssI14
(dp7446
g15
g7274
sg17
g7275
ssI15
(dp7447
g15
g7277
sg17
g7278
ssI16
(dp7448
g15
g7280
sg17
g7281
ssI17
(dp7449
g15
S'D'
sg17
g7283
ssI18
(dp7450
g15
g7285
sg17
g7286
ssI19
(dp7451
g15
S'E'
sg17
g7288
ssI21
(dp7452
g15
g7290
sg17
g7291
ssI22
(dp7453
g15
g7293
sg17
g7294
ssI23
(dp7454
g15
g59
sg17
g7296
ssI24
(dp7455
g15
g7298
sg17
g7299
ssI25
(dp7456
g15
g7301
sg17
g7302
ssI27
(dp7457
g15
g7304
sg17
g7305
ssI28
(dp7458
g15
g7307
sg17
g7308
ssI29
(dp7459
g15
g7310
sg17
g7311
ssI30
(dp7460
g15
g7313
sg17
g7314
ssI31
(dp7461
g15
g7316
sg17
g7317
sssg63
(dp7462
sg116
(dp7463
I0
(dp7464
I2
(dp7465
g17
g7322
ssI10
(dp7466
g17
g7341
sssI1
(dp7467
I2
(dp7468
g17
g7326
sssI2
(dp7469
I0
g7465
sI1
g7468
sI3
(dp7470
g17
g7328
sssI3
(dp7471
I2
g7470
sI5
(dp7472
g17
g7331
sssI4
(dp7473
I5
(dp7474
g17
g7335
sssI5
(dp7475
I3
g7472
sI4
g7474
ssI7
(dp7476
I10
(dp7477
g17
g7343
sssI8
(dp7478
I10
(dp7479
g17
g7345
sssI9
(dp7480
I10
(dp7481
g17
g7347
sssI10
(dp7482
I0
g7466
sI7
g7477
sI8
g7479
sI9
g7481
sI15
(dp7483
g17
g7349
ssI23
(dp7484
g17
g7351
ssI27
(dp7485
g17
g7353
ssI31
(dp7486
g17
g7355
sssI12
(dp7487
I13
(dp7488
g17
g7359
sssI13
(dp7489
I12
g7488
sI15
(dp7490
g17
g7367
sssI14
(dp7491
I15
(dp7492
g17
g7369
sssI15
(dp7493
I16
(dp7494
g17
g7363
ssI10
g7483
sI18
(dp7495
g17
g7365
ssI14
g7492
sI13
g7490
ssI16
(dp7496
I17
(dp7497
g17
g7372
ssI15
g7494
ssI17
(dp7498
I16
g7497
ssI18
(dp7499
I19
(dp7500
g17
g7376
ssI15
g7495
ssI19
(dp7501
I18
g7500
ssI21
(dp7502
I22
(dp7503
g17
g7381
sssI22
(dp7504
I21
g7503
sI23
(dp7505
g17
g7386
sssI23
(dp7506
I25
(dp7507
g17
g7384
ssI10
g7484
sI22
g7505
ssI24
(dp7508
I25
(dp7509
g17
g7390
sssI25
(dp7510
I24
g7509
sI23
g7507
ssI27
(dp7511
I10
g7485
ssI28
(dp7512
I29
(dp7513
g17
g7395
sssI29
(dp7514
I28
g7513
sI31
(dp7515
g17
g7399
sssI30
(dp7516
I31
(dp7517
g17
g7401
sssI31
(dp7518
I10
g7486
sI29
g7515
sI30
g7517
sssg136
g7463
sbsg195
I0
sg196
(dp7519
I0
g7239
sI1
g7242
sI2
g7245
sI3
g7248
sI4
g7251
sI5
g7254
sI6
S','
sI7
g7257
sI8
g7260
sI9
S'a'
sI10
g7265
sI11
S','
sI12
g7268
sI13
g7271
sI14
g7274
sI15
g7277
sI16
g7280
sI17
S'D'
sI18
g7285
sI19
S'E'
sI20
S','
sI21
g7290
sI22
g7293
sI23
g59
sI24
g7298
sI25
g7301
sI26
S','
sI27
g7304
sI28
g7307
sI29
g7310
sI30
g7313
sI31
g7316
sI32
S'.'
ssbsI1
g3
(g4
g5
NtRp7520
(dp7521
g8
g3
(g9
g5
NtRp7522
(dp7523
g12
(dp7524
I0
(dp7525
g15
S'What'
p7526
sg17
S'What-0'
p7527
ssI1
(dp7528
g15
S'is'
p7529
sg17
S'is-1'
p7530
ssI2
(dp7531
g15
S'angle'
p7532
sg17
S'angle-2'
p7533
ssI3
(dp7534
g15
S'DAE'
p7535
sg17
S'DAE-3'
p7536
sssg63
(dp7537
sg65
(dp7538
I0
(dp7539
I1
(dp7540
g17
Vcop
p7541
ssI3
(dp7542
g17
Vnsubj
p7543
sssI1
(dp7544
sI2
(dp7545
sI3
(dp7546
I2
(dp7547
g17
Vnn
p7548
ssssg116
g7538
sg117
(dp7549
I0
(dp7550
sI1
(dp7551
I0
g7540
ssI2
(dp7552
I3
g7547
ssI3
(dp7553
I0
g7542
sssg136
g7538
sbsg137
F-35.773334980010986
sg138
g3
(g139
g5
NtRp7554
(dp7555
g12
(dp7556
I0
(dp7557
g15
g7526
sg17
g7527
ssI1
(dp7558
g15
g7529
sg17
g7530
ssI2
(dp7559
g15
g7532
sg17
g7533
ssI3
(dp7560
g15
g7535
sg17
g7536
sssg63
(dp7561
sg116
(dp7562
I0
(dp7563
I1
(dp7564
g17
g7541
ssI3
(dp7565
g17
g7543
sssI1
(dp7566
I0
g7564
ssI2
(dp7567
I3
(dp7568
g17
g7548
sssI3
(dp7569
I0
g7565
sI2
g7568
sssg136
g7562
sbsg195
I0
sg196
(dp7570
I0
g7526
sI1
g7529
sI2
g7532
sI3
g7535
sI4
S'?'
ssbssI61
(dp7571
I0
g3
(g4
g5
NtRp7572
(dp7573
g8
g3
(g9
g5
NtRp7574
(dp7575
g12
(dp7576
I0
(dp7577
g15
S'In'
p7578
sg17
S'In-0'
p7579
ssI1
(dp7580
g15
S'the'
p7581
sg17
S'the-1'
p7582
ssI2
(dp7583
g15
S'accompanying'
p7584
sg17
S'accompanying-2'
p7585
ssI3
(dp7586
g15
S'diagram'
p7587
sg17
S'diagram-3'
p7588
ssI4
(dp7589
g15
S'of'
p7590
sg17
S'of-4'
p7591
ssI5
(dp7592
g15
S'rhombus'
p7593
sg17
S'rhombus-5'
p7594
ssI6
(dp7595
g15
S'ABCD'
p7596
sg17
S'ABCD-6'
p7597
ssI8
(dp7598
g15
S'angle'
p7599
sg17
S'angle-8'
p7600
ssI9
(dp7601
g15
S'CAB'
p7602
sg17
S'CAB-9'
p7603
ssI10
(dp7604
g15
g59
sg17
S'equals-10'
p7605
ssI11
(dp7606
g15
S'35'
p7607
sg17
S'35-11'
p7608
sssg63
(dp7609
sg65
(dp7610
I0
(dp7611
I3
(dp7612
g17
Vpobj
p7613
sssI1
(dp7614
sI2
(dp7615
sI3
(dp7616
I1
(dp7617
g17
Vdet
p7618
ssI2
(dp7619
g17
Vamod
p7620
ssI4
(dp7621
g17
Vprep
p7622
sssI4
(dp7623
I6
(dp7624
g17
Vpobj
p7625
sssI5
(dp7626
sI6
(dp7627
I5
(dp7628
g17
Vnn
p7629
sssI8
(dp7630
sI9
(dp7631
I8
(dp7632
g17
Vnn
p7633
sssI10
(dp7634
I0
(dp7635
g17
Vprep
p7636
ssI9
(dp7637
g17
Vnsubj
p7638
ssI11
(dp7639
g17
Vdobj
p7640
sssI11
(dp7641
ssg116
g7610
sg117
(dp7642
I0
(dp7643
I10
g7635
ssI1
(dp7644
I3
g7617
ssI2
(dp7645
I3
g7619
ssI3
(dp7646
I0
g7612
ssI4
(dp7647
I3
g7621
ssI5
(dp7648
I6
g7628
ssI6
(dp7649
I4
g7624
ssI8
(dp7650
I9
g7632
ssI9
(dp7651
I10
g7637
ssI10
(dp7652
sI11
(dp7653
I10
g7639
sssg136
g7610
sbsg137
F-115.36730819940567
sg138
g3
(g139
g5
NtRp7654
(dp7655
g12
(dp7656
I0
(dp7657
g15
g7578
sg17
g7579
ssI1
(dp7658
g15
g7581
sg17
g7582
ssI2
(dp7659
g15
g7584
sg17
g7585
ssI3
(dp7660
g15
g7587
sg17
g7588
ssI4
(dp7661
g15
g7590
sg17
g7591
ssI5
(dp7662
g15
g7593
sg17
g7594
ssI6
(dp7663
g15
g7596
sg17
g7597
ssI8
(dp7664
g15
g7599
sg17
g7600
ssI9
(dp7665
g15
g7602
sg17
g7603
ssI10
(dp7666
g15
g59
sg17
g7605
ssI11
(dp7667
g15
g7607
sg17
g7608
sssg63
(dp7668
sg116
(dp7669
I0
(dp7670
I10
(dp7671
g17
g7636
ssI3
(dp7672
g17
g7613
sssI1
(dp7673
I3
(dp7674
g17
g7618
sssI2
(dp7675
I3
(dp7676
g17
g7620
sssI3
(dp7677
I0
g7672
sI1
g7674
sI2
g7676
sI4
(dp7678
g17
g7622
sssI4
(dp7679
I3
g7678
sI6
(dp7680
g17
g7625
sssI5
(dp7681
I6
(dp7682
g17
g7629
sssI6
(dp7683
I4
g7680
sI5
g7682
ssI8
(dp7684
I9
(dp7685
g17
g7633
sssI9
(dp7686
I8
g7685
sI10
(dp7687
g17
g7638
sssI10
(dp7688
I0
g7671
sI9
g7687
sI11
(dp7689
g17
g7640
sssI11
(dp7690
I10
g7689
sssg136
g7669
sbsg195
I0
sg196
(dp7691
I0
g7578
sI1
g7581
sI2
g7584
sI3
g7587
sI4
g7590
sI5
g7593
sI6
g7596
sI7
S','
sI8
g7599
sI9
g7602
sI10
g59
sI11
g7607
sI12
S'.'
ssbsI1
g3
(g4
g5
NtRp7692
(dp7693
g8
g3
(g9
g5
NtRp7694
(dp7695
g12
(dp7696
I0
(dp7697
g15
S'Find'
p7698
sg17
S'Find-0'
p7699
ssI1
(dp7700
g15
S'angle'
p7701
sg17
S'angle-1'
p7702
ssI2
(dp7703
g15
S'CDA'
p7704
sg17
S'CDA-2'
p7705
sssg63
(dp7706
sg65
(dp7707
I0
(dp7708
I2
(dp7709
g17
Vdobj
p7710
sssI1
(dp7711
sI2
(dp7712
I1
(dp7713
g17
Vnn
p7714
ssssg116
g7707
sg117
(dp7715
I0
(dp7716
sI1
(dp7717
I2
g7713
ssI2
(dp7718
I0
g7709
sssg136
g7707
sbsg137
F-46.566207885742188
sg138
g3
(g139
g5
NtRp7719
(dp7720
g12
(dp7721
I0
(dp7722
g15
g7698
sg17
g7699
ssI1
(dp7723
g15
g7701
sg17
g7702
ssI2
(dp7724
g15
g7704
sg17
g7705
sssg63
(dp7725
sg116
(dp7726
I0
(dp7727
I2
(dp7728
g17
g7710
sssI1
(dp7729
I2
(dp7730
g17
g7714
sssI2
(dp7731
I0
g7728
sI1
g7730
sssg136
g7726
sbsg195
I0
sg196
(dp7732
I0
g7698
sI1
g7701
sI2
g7704
sI3
S'.'
ssbssI62
(dp7733
I0
g3
(g4
g5
NtRp7734
(dp7735
g8
g3
(g9
g5
NtRp7736
(dp7737
g12
(dp7738
I0
(dp7739
g15
S'In'
p7740
sg17
S'In-0'
p7741
ssI1
(dp7742
g15
S'the'
p7743
sg17
S'the-1'
p7744
ssI2
(dp7745
g15
S'figure'
p7746
sg17
S'figure-2'
p7747
ssI3
(dp7748
g15
S'above'
p7749
sg17
S'above-3'
p7750
ssI5
(dp7751
g15
S'AD'
p7752
sg17
S'AD-5'
p7753
ssI6
(dp7754
g15
g59
sg17
S'equals-6'
p7755
ssI7
(dp7756
g15
S'4'
sg17
S'4-7'
p7757
ssI9
(dp7758
g15
S'AB'
p7759
sg17
S'AB-9'
p7760
ssI10
(dp7761
g15
g59
sg17
S'equals-10'
p7762
ssI11
(dp7763
g15
S'3'
sg17
S'3-11'
p7764
ssI12
(dp7765
g15
S'and'
p7766
sg17
S'and-12'
p7767
ssI13
(dp7768
g15
S'CD'
p7769
sg17
S'CD-13'
p7770
ssI14
(dp7771
g15
g59
sg17
S'equals-14'
p7772
ssI15
(dp7773
g15
S'9'
sg17
S'9-15'
p7774
sssg63
(dp7775
sg65
(dp7776
I0
(dp7777
I3
(dp7778
g17
Vpcomp
p7779
sssI1
(dp7780
sI2
(dp7781
I1
(dp7782
g17
Vdet
p7783
sssI3
(dp7784
I2
(dp7785
g17
Vnpadvmod
p7786
sssI5
(dp7787
sI6
(dp7788
I0
(dp7789
g17
Vprep
p7790
ssI5
(dp7791
g17
Vnsubj
p7792
ssI7
(dp7793
g17
Vdobj
p7794
ssI10
(dp7795
g17
Vconj
p7796
ssI12
(dp7797
g17
Vcc
p7798
ssI14
(dp7799
g17
Vconj
p7800
sssI7
(dp7801
sI9
(dp7802
sI10
(dp7803
I9
(dp7804
g17
Vnsubj
p7805
ssI11
(dp7806
g17
Vdobj
p7807
sssI11
(dp7808
sI12
(dp7809
sI13
(dp7810
sI14
(dp7811
I13
(dp7812
g17
Vnsubj
p7813
ssI15
(dp7814
g17
Vdobj
p7815
sssI15
(dp7816
ssg116
g7776
sg117
(dp7817
I0
(dp7818
I6
g7789
ssI1
(dp7819
I2
g7782
ssI2
(dp7820
I3
g7785
ssI3
(dp7821
I0
g7778
ssI5
(dp7822
I6
g7791
ssI6
(dp7823
sI7
(dp7824
I6
g7793
ssI9
(dp7825
I10
g7804
ssI10
(dp7826
I6
g7795
ssI11
(dp7827
I10
g7806
ssI12
(dp7828
I6
g7797
ssI13
(dp7829
I14
g7812
ssI14
(dp7830
I6
g7799
ssI15
(dp7831
I14
g7814
sssg136
g7776
sbsg137
F-140.09031540155411
sg138
g3
(g139
g5
NtRp7832
(dp7833
g12
(dp7834
I0
(dp7835
g15
g7740
sg17
g7741
ssI1
(dp7836
g15
g7743
sg17
g7744
ssI2
(dp7837
g15
g7746
sg17
g7747
ssI3
(dp7838
g15
g7749
sg17
g7750
ssI5
(dp7839
g15
g7752
sg17
g7753
ssI6
(dp7840
g15
g59
sg17
g7755
ssI7
(dp7841
g15
S'4'
sg17
g7757
ssI9
(dp7842
g15
g7759
sg17
g7760
ssI10
(dp7843
g15
g59
sg17
g7762
ssI11
(dp7844
g15
S'3'
sg17
g7764
ssI12
(dp7845
g15
g7766
sg17
g7767
ssI13
(dp7846
g15
g7769
sg17
g7770
ssI14
(dp7847
g15
g59
sg17
g7772
ssI15
(dp7848
g15
S'9'
sg17
g7774
sssg63
(dp7849
sg116
(dp7850
I0
(dp7851
I3
(dp7852
g17
g7779
ssI6
(dp7853
g17
g7790
sssI1
(dp7854
I2
(dp7855
g17
g7783
sssI2
(dp7856
I1
g7855
sI3
(dp7857
g17
g7786
sssI3
(dp7858
I0
g7852
sI2
g7857
ssI5
(dp7859
I6
(dp7860
g17
g7792
sssI6
(dp7861
I0
g7853
sI5
g7860
sI7
(dp7862
g17
g7794
ssI10
(dp7863
g17
g7796
ssI12
(dp7864
g17
g7798
ssI14
(dp7865
g17
g7800
sssI7
(dp7866
I6
g7862
ssI9
(dp7867
I10
(dp7868
g17
g7805
sssI10
(dp7869
I9
g7868
sI11
(dp7870
g17
g7807
ssI6
g7863
ssI11
(dp7871
I10
g7870
ssI12
(dp7872
I6
g7864
ssI13
(dp7873
I14
(dp7874
g17
g7813
sssI14
(dp7875
I13
g7874
sI6
g7865
sI15
(dp7876
g17
g7815
sssI15
(dp7877
I14
g7876
sssg136
g7850
sbsg195
I0
sg196
(dp7878
I0
g7740
sI1
g7743
sI2
g7746
sI3
g7749
sI4
S','
sI5
g7752
sI6
g59
sI7
S'4'
sI8
S','
sI9
g7759
sI10
g59
sI11
S'3'
sI12
g7766
sI13
g7769
sI14
g59
sI15
S'9'
sI16
S'.'
ssbsI1
g3
(g4
g5
NtRp7879
(dp7880
g8
g3
(g9
g5
NtRp7881
(dp7882
g12
(dp7883
I0
(dp7884
g15
S'What'
p7885
sg17
S'What-0'
p7886
ssI1
(dp7887
g15
S'is'
p7888
sg17
S'is-1'
p7889
ssI2
(dp7890
g15
S'the'
p7891
sg17
S'the-2'
p7892
ssI3
(dp7893
g15
S'area'
p7894
sg17
S'area-3'
p7895
ssI4
(dp7896
g15
S'of'
p7897
sg17
S'of-4'
p7898
ssI5
(dp7899
g15
S'triangle'
p7900
sg17
S'triangle-5'
p7901
ssI6
(dp7902
g15
S'AEC'
p7903
sg17
S'AEC-6'
p7904
sssg63
(dp7905
sg65
(dp7906
I0
(dp7907
I1
(dp7908
g17
Vcop
p7909
ssI3
(dp7910
g17
Vnsubj
p7911
sssI1
(dp7912
sI2
(dp7913
sI3
(dp7914
I2
(dp7915
g17
Vdet
p7916
ssI4
(dp7917
g17
Vprep
p7918
sssI4
(dp7919
I6
(dp7920
g17
Vpobj
p7921
sssI5
(dp7922
sI6
(dp7923
I5
(dp7924
g17
Vnn
p7925
ssssg116
g7906
sg117
(dp7926
I0
(dp7927
sI1
(dp7928
I0
g7908
ssI2
(dp7929
I3
g7915
ssI3
(dp7930
I0
g7910
ssI4
(dp7931
I3
g7917
ssI5
(dp7932
I6
g7924
ssI6
(dp7933
I4
g7920
sssg136
g7906
sbsg137
F-46.944523334503174
sg138
g3
(g139
g5
NtRp7934
(dp7935
g12
(dp7936
I0
(dp7937
g15
g7885
sg17
g7886
ssI1
(dp7938
g15
g7888
sg17
g7889
ssI2
(dp7939
g15
g7891
sg17
g7892
ssI3
(dp7940
g15
g7894
sg17
g7895
ssI4
(dp7941
g15
g7897
sg17
g7898
ssI5
(dp7942
g15
g7900
sg17
g7901
ssI6
(dp7943
g15
g7903
sg17
g7904
sssg63
(dp7944
sg116
(dp7945
I0
(dp7946
I1
(dp7947
g17
g7909
ssI3
(dp7948
g17
g7911
sssI1
(dp7949
I0
g7947
ssI2
(dp7950
I3
(dp7951
g17
g7916
sssI3
(dp7952
I0
g7948
sI2
g7951
sI4
(dp7953
g17
g7918
sssI4
(dp7954
I3
g7953
sI6
(dp7955
g17
g7921
sssI5
(dp7956
I6
(dp7957
g17
g7925
sssI6
(dp7958
I4
g7955
sI5
g7957
sssg136
g7945
sbsg195
I0
sg196
(dp7959
I0
g7885
sI1
g7888
sI2
g7891
sI3
g7894
sI4
g7897
sI5
g7900
sI6
g7903
sI7
S'?'
ssbssI63
(dp7960
I0
g3
(g4
g5
NtRp7961
(dp7962
g8
g3
(g9
g5
NtRp7963
(dp7964
g12
(dp7965
I0
(dp7966
g15
S'Which'
p7967
sg17
S'Which-0'
p7968
ssI1
(dp7969
g15
S'of'
p7970
sg17
S'of-1'
p7971
ssI2
(dp7972
g15
S'the'
p7973
sg17
S'the-2'
p7974
ssI3
(dp7975
g15
S'following'
p7976
sg17
S'following-3'
p7977
ssI4
(dp7978
g15
S'could'
p7979
sg17
S'could-4'
p7980
ssI5
(dp7981
g15
S'be'
p7982
sg17
S'be-5'
p7983
ssI6
(dp7984
g15
S'a'
sg17
S'a-6'
p7985
ssI7
(dp7986
g15
S'value'
p7987
sg17
S'value-7'
p7988
ssI8
(dp7989
g15
S'of'
p7990
sg17
S'of-8'
p7991
ssI9
(dp7992
g15
S'x'
sg17
S'x-9'
p7993
ssI11
(dp7994
g15
S'in'
p7995
sg17
S'in-11'
p7996
ssI12
(dp7997
g15
S'the'
p7998
sg17
S'the-12'
p7999
ssI13
(dp8000
g15
S'diagram'
p8001
sg17
S'diagram-13'
p8002
ssI14
(dp8003
g15
S'above'
p8004
sg17
S'above-14'
p8005
sssg63
(dp8006
sg65
(dp8007
I0
(dp8008
I1
(dp8009
g17
Vprep
p8010
sssI1
(dp8011
I3
(dp8012
g17
Vpobj
p8013
sssI2
(dp8014
sI3
(dp8015
I2
(dp8016
g17
Vdet
p8017
sssI4
(dp8018
sI5
(dp8019
sI6
(dp8020
sI7
(dp8021
I0
(dp8022
g17
Vnsubj
p8023
ssI4
(dp8024
g17
Vaux
p8025
ssI5
(dp8026
g17
Vcop
p8027
ssI6
(dp8028
g17
Vdet
p8029
ssI8
(dp8030
g17
Vprep
p8031
ssI14
(dp8032
g17
Vprep
p8033
sssI8
(dp8034
I9
(dp8035
g17
Vpobj
p8036
sssI9
(dp8037
I11
(dp8038
g17
Vprep
p8039
sssI11
(dp8040
I13
(dp8041
g17
Vpobj
p8042
sssI12
(dp8043
sI13
(dp8044
I12
(dp8045
g17
Vdet
p8046
sssI14
(dp8047
ssg116
g8007
sg117
(dp8048
I0
(dp8049
I7
g8022
ssI1
(dp8050
I0
g8009
ssI2
(dp8051
I3
g8016
ssI3
(dp8052
I1
g8012
ssI4
(dp8053
I7
g8024
ssI5
(dp8054
I7
g8026
ssI6
(dp8055
I7
g8028
ssI7
(dp8056
sI8
(dp8057
I7
g8030
ssI9
(dp8058
I8
g8035
ssI11
(dp8059
I9
g8038
ssI12
(dp8060
I13
g8045
ssI13
(dp8061
I11
g8041
ssI14
(dp8062
I7
g8032
sssg136
g8007
sbsg137
F-101.13484621047974
sg138
g3
(g139
g5
NtRp8063
(dp8064
g12
(dp8065
I0
(dp8066
g15
g7967
sg17
g7968
ssI1
(dp8067
g15
g7970
sg17
g7971
ssI2
(dp8068
g15
g7973
sg17
g7974
ssI3
(dp8069
g15
g7976
sg17
g7977
ssI4
(dp8070
g15
g7979
sg17
g7980
ssI5
(dp8071
g15
g7982
sg17
g7983
ssI6
(dp8072
g15
S'a'
sg17
g7985
ssI7
(dp8073
g15
g7987
sg17
g7988
ssI8
(dp8074
g15
g7990
sg17
g7991
ssI9
(dp8075
g15
S'x'
sg17
g7993
ssI11
(dp8076
g15
g7995
sg17
g7996
ssI12
(dp8077
g15
g7998
sg17
g7999
ssI13
(dp8078
g15
g8001
sg17
g8002
ssI14
(dp8079
g15
g8004
sg17
g8005
sssg63
(dp8080
sg116
(dp8081
I0
(dp8082
I1
(dp8083
g17
g8010
ssI7
(dp8084
g17
g8023
sssI1
(dp8085
I0
g8083
sI3
(dp8086
g17
g8013
sssI2
(dp8087
I3
(dp8088
g17
g8017
sssI3
(dp8089
I1
g8086
sI2
g8088
ssI4
(dp8090
I7
(dp8091
g17
g8025
sssI5
(dp8092
I7
(dp8093
g17
g8027
sssI6
(dp8094
I7
(dp8095
g17
g8029
sssI7
(dp8096
I0
g8084
sI4
g8091
sI5
g8093
sI6
g8095
sI8
(dp8097
g17
g8031
ssI14
(dp8098
g17
g8033
sssI8
(dp8099
I9
(dp8100
g17
g8036
ssI7
g8097
ssI9
(dp8101
I8
g8100
sI11
(dp8102
g17
g8039
sssI11
(dp8103
I9
g8102
sI13
(dp8104
g17
g8042
sssI12
(dp8105
I13
(dp8106
g17
g8046
sssI13
(dp8107
I11
g8104
sI12
g8106
ssI14
(dp8108
I7
g8098
sssg136
g8081
sbsg195
I0
sg196
(dp8109
I0
g7967
sI1
g7970
sI2
g7973
sI3
g7976
sI4
g7979
sI5
g7982
sI6
S'a'
sI7
g7987
sI8
g7990
sI9
S'x'
sI10
S','
sI11
g7995
sI12
g7998
sI13
g8001
sI14
g8004
sI15
S'?'
ssbssI73
(dp8110
I0
g3
(g4
g5
NtRp8111
(dp8112
g8
g3
(g9
g5
NtRp8113
(dp8114
g12
(dp8115
I0
(dp8116
g15
S'In'
p8117
sg17
S'In-0'
p8118
ssI1
(dp8119
g15
S'triangle'
p8120
sg17
S'triangle-1'
p8121
ssI2
(dp8122
g15
S'ABC'
p8123
sg17
S'ABC-2'
p8124
ssI4
(dp8125
g15
S'AD'
p8126
sg17
S'AD-4'
p8127
ssI5
(dp8128
g15
g59
sg17
S'equals-5'
p8129
ssI6
(dp8130
g15
S'DB'
p8131
sg17
S'DB-6'
p8132
ssI8
(dp8133
g15
S'DE'
p8134
sg17
S'DE-8'
p8135
ssI9
(dp8136
g15
S'is'
p8137
sg17
S'is-9'
p8138
ssI10
(dp8139
g15
S'parallel'
p8140
sg17
S'parallel-10'
p8141
ssI11
(dp8142
g15
S'to'
p8143
sg17
S'to-11'
p8144
ssI12
(dp8145
g15
S'BC'
p8146
sg17
S'BC-12'
p8147
ssI14
(dp8148
g15
S'and'
p8149
sg17
S'and-14'
p8150
ssI15
(dp8151
g15
S'the'
p8152
sg17
S'the-15'
p8153
ssI16
(dp8154
g15
S'area'
p8155
sg17
S'area-16'
p8156
ssI17
(dp8157
g15
S'of'
p8158
sg17
S'of-17'
p8159
ssI18
(dp8160
g15
S'triangle'
p8161
sg17
S'triangle-18'
p8162
ssI19
(dp8163
g15
S'ABC'
p8164
sg17
S'ABC-19'
p8165
ssI20
(dp8166
g15
S'is'
p8167
sg17
S'is-20'
p8168
ssI21
(dp8169
g15
S'40'
p8170
sg17
S'40-21'
p8171
sssg63
(dp8172
sg65
(dp8173
I0
(dp8174
I2
(dp8175
g17
Vpobj
p8176
sssI1
(dp8177
sI2
(dp8178
I1
(dp8179
g17
Vnn
p8180
ssI6
(dp8181
g17
Vappos
p8182
sssI4
(dp8183
sI5
(dp8184
sI6
(dp8185
I4
(dp8186
g17
Vnn
p8187
ssI5
(dp8188
g17
Vnn
p8189
sssI8
(dp8190
sI9
(dp8191
I0
(dp8192
g17
Vprep
p8193
ssI8
(dp8194
g17
Vnsubj
p8195
ssI10
(dp8196
g17
Vadvmod
p8197
ssI11
(dp8198
g17
Vprep
p8199
ssI14
(dp8200
g17
Vcc
p8201
ssI21
(dp8202
g17
Vconj
p8203
sssI10
(dp8204
sI11
(dp8205
I12
(dp8206
g17
Vpobj
p8207
sssI12
(dp8208
sI14
(dp8209
sI15
(dp8210
sI16
(dp8211
I17
(dp8212
g17
Vprep
p8213
ssI15
(dp8214
g17
Vdet
p8215
sssI17
(dp8216
I19
(dp8217
g17
Vpobj
p8218
sssI18
(dp8219
sI19
(dp8220
I18
(dp8221
g17
Vnn
p8222
sssI20
(dp8223
sI21
(dp8224
I16
(dp8225
g17
Vnsubj
p8226
ssI20
(dp8227
g17
Vcop
p8228
ssssg116
g8173
sg117
(dp8229
I0
(dp8230
I9
g8192
ssI1
(dp8231
I2
g8179
ssI2
(dp8232
I0
g8175
ssI4
(dp8233
I6
g8186
ssI5
(dp8234
I6
g8188
ssI6
(dp8235
I2
g8181
ssI8
(dp8236
I9
g8194
ssI9
(dp8237
sI10
(dp8238
I9
g8196
ssI11
(dp8239
I9
g8198
ssI12
(dp8240
I11
g8206
ssI14
(dp8241
I9
g8200
ssI15
(dp8242
I16
g8214
ssI16
(dp8243
I21
g8225
ssI17
(dp8244
I16
g8212
ssI18
(dp8245
I19
g8221
ssI19
(dp8246
I17
g8217
ssI20
(dp8247
I21
g8227
ssI21
(dp8248
I9
g8202
sssg136
g8173
sbsg137
F-180.83567672967911
sg138
g3
(g139
g5
NtRp8249
(dp8250
g12
(dp8251
I0
(dp8252
g15
g8117
sg17
g8118
ssI1
(dp8253
g15
g8120
sg17
g8121
ssI2
(dp8254
g15
g8123
sg17
g8124
ssI4
(dp8255
g15
g8126
sg17
g8127
ssI5
(dp8256
g15
g59
sg17
g8129
ssI6
(dp8257
g15
g8131
sg17
g8132
ssI8
(dp8258
g15
g8134
sg17
g8135
ssI9
(dp8259
g15
g8137
sg17
g8138
ssI10
(dp8260
g15
g8140
sg17
g8141
ssI11
(dp8261
g15
g8143
sg17
g8144
ssI12
(dp8262
g15
g8146
sg17
g8147
ssI14
(dp8263
g15
g8149
sg17
g8150
ssI15
(dp8264
g15
g8152
sg17
g8153
ssI16
(dp8265
g15
g8155
sg17
g8156
ssI17
(dp8266
g15
g8158
sg17
g8159
ssI18
(dp8267
g15
g8161
sg17
g8162
ssI19
(dp8268
g15
g8164
sg17
g8165
ssI20
(dp8269
g15
g8167
sg17
g8168
ssI21
(dp8270
g15
g8170
sg17
g8171
sssg63
(dp8271
sg116
(dp8272
I0
(dp8273
I9
(dp8274
g17
g8193
ssI2
(dp8275
g17
g8176
sssI1
(dp8276
I2
(dp8277
g17
g8180
sssI2
(dp8278
I0
g8275
sI1
g8277
sI6
(dp8279
g17
g8182
sssI4
(dp8280
I6
(dp8281
g17
g8187
sssI5
(dp8282
I6
(dp8283
g17
g8189
sssI6
(dp8284
I2
g8279
sI4
g8281
sI5
g8283
ssI8
(dp8285
I9
(dp8286
g17
g8195
sssI9
(dp8287
I0
g8274
sI8
g8286
sI10
(dp8288
g17
g8197
ssI11
(dp8289
g17
g8199
ssI14
(dp8290
g17
g8201
ssI21
(dp8291
g17
g8203
sssI10
(dp8292
I9
g8288
ssI11
(dp8293
I9
g8289
sI12
(dp8294
g17
g8207
sssI12
(dp8295
I11
g8294
ssI14
(dp8296
I9
g8290
ssI15
(dp8297
I16
(dp8298
g17
g8215
sssI16
(dp8299
I17
(dp8300
g17
g8213
ssI21
(dp8301
g17
g8226
ssI15
g8298
ssI17
(dp8302
I16
g8300
sI19
(dp8303
g17
g8218
sssI18
(dp8304
I19
(dp8305
g17
g8222
sssI19
(dp8306
I17
g8303
sI18
g8305
ssI20
(dp8307
I21
(dp8308
g17
g8228
sssI21
(dp8309
I16
g8301
sI9
g8291
sI20
g8308
sssg136
g8272
sbsg195
I0
sg196
(dp8310
I0
g8117
sI1
g8120
sI2
g8123
sI3
S','
sI4
g8126
sI5
g59
sI6
g8131
sI7
S','
sI8
g8134
sI9
g8137
sI10
g8140
sI11
g8143
sI12
g8146
sI13
S','
sI14
g8149
sI15
g8152
sI16
g8155
sI17
g8158
sI18
g8161
sI19
g8164
sI20
g8167
sI21
g8170
sI22
S'.'
ssbsI1
g3
(g4
g5
NtRp8311
(dp8312
g8
g3
(g9
g5
NtRp8313
(dp8314
g12
(dp8315
I0
(dp8316
g15
S'What'
p8317
sg17
S'What-0'
p8318
ssI1
(dp8319
g15
S'is'
p8320
sg17
S'is-1'
p8321
ssI2
(dp8322
g15
S'the'
p8323
sg17
S'the-2'
p8324
ssI3
(dp8325
g15
S'area'
p8326
sg17
S'area-3'
p8327
ssI4
(dp8328
g15
S'of'
p8329
sg17
S'of-4'
p8330
ssI5
(dp8331
g15
S'triangle'
p8332
sg17
S'triangle-5'
p8333
ssI6
(dp8334
g15
S'ADE'
p8335
sg17
S'ADE-6'
p8336
sssg63
(dp8337
sg65
(dp8338
I0
(dp8339
I1
(dp8340
g17
Vcop
p8341
ssI3
(dp8342
g17
Vnsubj
p8343
sssI1
(dp8344
sI2
(dp8345
sI3
(dp8346
I2
(dp8347
g17
Vdet
p8348
ssI4
(dp8349
g17
Vprep
p8350
sssI4
(dp8351
I6
(dp8352
g17
Vpobj
p8353
sssI5
(dp8354
sI6
(dp8355
I5
(dp8356
g17
Vnn
p8357
ssssg116
g8338
sg117
(dp8358
I0
(dp8359
sI1
(dp8360
I0
g8340
ssI2
(dp8361
I3
g8347
ssI3
(dp8362
I0
g8342
ssI4
(dp8363
I3
g8349
ssI5
(dp8364
I6
g8356
ssI6
(dp8365
I4
g8352
sssg136
g8338
sbsg137
F-46.944523334503174
sg138
g3
(g139
g5
NtRp8366
(dp8367
g12
(dp8368
I0
(dp8369
g15
g8317
sg17
g8318
ssI1
(dp8370
g15
g8320
sg17
g8321
ssI2
(dp8371
g15
g8323
sg17
g8324
ssI3
(dp8372
g15
g8326
sg17
g8327
ssI4
(dp8373
g15
g8329
sg17
g8330
ssI5
(dp8374
g15
g8332
sg17
g8333
ssI6
(dp8375
g15
g8335
sg17
g8336
sssg63
(dp8376
sg116
(dp8377
I0
(dp8378
I1
(dp8379
g17
g8341
ssI3
(dp8380
g17
g8343
sssI1
(dp8381
I0
g8379
ssI2
(dp8382
I3
(dp8383
g17
g8348
sssI3
(dp8384
I0
g8380
sI2
g8383
sI4
(dp8385
g17
g8350
sssI4
(dp8386
I3
g8385
sI6
(dp8387
g17
g8353
sssI5
(dp8388
I6
(dp8389
g17
g8357
sssI6
(dp8390
I4
g8387
sI5
g8389
sssg136
g8377
sbsg195
I0
sg196
(dp8391
I0
g8317
sI1
g8320
sI2
g8323
sI3
g8326
sI4
g8329
sI5
g8332
sI6
g8335
sI7
S'?'
ssbss.